	.section	__TEXT,__text,regular,pure_instructions
	.build_version macos, 13, 0	sdk_version 13, 3
	.globl	_main                           ; -- Begin function main
	.p2align	2
_main:                                  ; @main
Lfunc_begin0:
	.cfi_startproc
	.cfi_personality 155, ___gxx_personality_v0
	.cfi_lsda 16, Lexception0
; %bb.0:
	stp	x28, x27, [sp, #-32]!           ; 16-byte Folded Spill
	.cfi_def_cfa_offset 32
	stp	x29, x30, [sp, #16]             ; 16-byte Folded Spill
	add	x29, sp, #16
	.cfi_def_cfa w29, 16
	.cfi_offset w30, -8
	.cfi_offset w29, -16
	.cfi_offset w27, -24
	.cfi_offset w28, -32
	sub	sp, sp, #688
	adrp	x0, __ZNSt3__14coutE@GOTPAGE
	ldr	x0, [x0, __ZNSt3__14coutE@GOTPAGEOFF]
	str	x0, [sp, #8]                    ; 8-byte Folded Spill
	adrp	x8, __ZNSt3__13cinE@GOTPAGE
	ldr	x8, [x8, __ZNSt3__13cinE@GOTPAGEOFF]
	str	x8, [sp, #16]                   ; 8-byte Folded Spill
	adrp	x8, ___stack_chk_guard@GOTPAGE
	ldr	x8, [x8, ___stack_chk_guard@GOTPAGEOFF]
	ldr	x8, [x8]
	stur	x8, [x29, #-24]
	str	wzr, [sp, #92]
	adrp	x1, l_.str@PAGE
	add	x1, x1, l_.str@PAGEOFF
	bl	__ZNSt3__1lsINS_11char_traitsIcEEEERNS_13basic_ostreamIcT_EES6_PKc
	b	LBB0_1
LBB0_1:                                 ; =>This Inner Loop Header: Depth=1
	ldr	x0, [sp, #8]                    ; 8-byte Folded Reload
	adrp	x1, l_.str.1@PAGE
	add	x1, x1, l_.str.1@PAGEOFF
	bl	__ZNSt3__1lsINS_11char_traitsIcEEEERNS_13basic_ostreamIcT_EES6_PKc
	ldr	x0, [sp, #16]                   ; 8-byte Folded Reload
	add	x1, sp, #88
	bl	__ZNSt3__113basic_istreamIcNS_11char_traitsIcEEErsERi
	ldr	w8, [sp, #88]
	subs	w8, w8, #2
	cset	w8, ne
	tbnz	w8, #0, LBB0_3
	b	LBB0_2
LBB0_2:
	str	wzr, [sp, #92]
	b	LBB0_31
LBB0_3:                                 ;   in Loop: Header=BB0_1 Depth=1
	add	x0, sp, #96
	bl	__ZNSt3__113basic_fstreamIcNS_11char_traitsIcEEEC1Ev
Ltmp0:
	add	x0, sp, #64
	bl	__ZNSt3__112basic_stringIcNS_11char_traitsIcEENS_9allocatorIcEEEC1B6v15006Ev
Ltmp1:
	b	LBB0_4
LBB0_4:                                 ;   in Loop: Header=BB0_1 Depth=1
Ltmp2:
	ldr	x0, [sp, #8]                    ; 8-byte Folded Reload
	adrp	x1, l_.str.2@PAGE
	add	x1, x1, l_.str.2@PAGEOFF
	bl	__ZNSt3__1lsINS_11char_traitsIcEEEERNS_13basic_ostreamIcT_EES6_PKc
Ltmp3:
	b	LBB0_5
LBB0_5:                                 ;   in Loop: Header=BB0_1 Depth=1
Ltmp4:
	ldr	x0, [sp, #16]                   ; 8-byte Folded Reload
	add	x1, sp, #64
	bl	__ZNSt3__1rsIcNS_11char_traitsIcEENS_9allocatorIcEEEERNS_13basic_istreamIT_T0_EES9_RNS_12basic_stringIS6_S7_T1_EE
Ltmp5:
	b	LBB0_6
LBB0_6:                                 ;   in Loop: Header=BB0_1 Depth=1
Ltmp6:
	add	x0, sp, #96
	add	x1, sp, #64
	mov	w2, #16
	bl	__ZNSt3__113basic_fstreamIcNS_11char_traitsIcEEE4openERKNS_12basic_stringIcS2_NS_9allocatorIcEEEEj
Ltmp7:
	b	LBB0_7
LBB0_7:                                 ;   in Loop: Header=BB0_1 Depth=1
	add	x8, sp, #96
	ldr	x9, [sp, #96]
	ldur	x9, [x9, #-24]
	add	x0, x8, x9
Ltmp8:
	bl	__ZNKSt3__19basic_iosIcNS_11char_traitsIcEEEntB6v15006Ev
	str	w0, [sp, #4]                    ; 4-byte Folded Spill
Ltmp9:
	b	LBB0_8
LBB0_8:                                 ;   in Loop: Header=BB0_1 Depth=1
	ldr	w8, [sp, #4]                    ; 4-byte Folded Reload
	tbz	w8, #0, LBB0_13
	b	LBB0_9
LBB0_9:                                 ;   in Loop: Header=BB0_1 Depth=1
Ltmp27:
	ldr	x0, [sp, #8]                    ; 8-byte Folded Reload
	adrp	x1, l_.str.3@PAGE
	add	x1, x1, l_.str.3@PAGEOFF
	bl	__ZNSt3__1lsINS_11char_traitsIcEEEERNS_13basic_ostreamIcT_EES6_PKc
Ltmp28:
	b	LBB0_10
LBB0_10:                                ;   in Loop: Header=BB0_1 Depth=1
	str	wzr, [sp, #92]
	mov	w8, #1
	str	w8, [sp, #48]
	b	LBB0_21
LBB0_11:
Ltmp34:
	mov	x8, x1
	str	x0, [sp, #56]
	str	w8, [sp, #52]
	b	LBB0_29
LBB0_12:
Ltmp29:
	mov	x8, x1
	str	x0, [sp, #56]
	str	w8, [sp, #52]
	b	LBB0_27
LBB0_13:                                ;   in Loop: Header=BB0_1 Depth=1
Ltmp10:
	add	x0, sp, #24
	bl	__ZNSt3__112basic_stringIcNS_11char_traitsIcEENS_9allocatorIcEEEC1B6v15006Ev
Ltmp11:
	b	LBB0_14
LBB0_14:                                ;   in Loop: Header=BB0_1 Depth=1
Ltmp12:
	ldr	x0, [sp, #8]                    ; 8-byte Folded Reload
	adrp	x1, l_.str.4@PAGE
	add	x1, x1, l_.str.4@PAGEOFF
	bl	__ZNSt3__1lsINS_11char_traitsIcEEEERNS_13basic_ostreamIcT_EES6_PKc
Ltmp13:
	b	LBB0_15
LBB0_15:                                ;   in Loop: Header=BB0_1 Depth=1
Ltmp14:
	ldr	x0, [sp, #16]                   ; 8-byte Folded Reload
	add	x1, sp, #24
	mov	w2, #36
	bl	__ZNSt3__17getlineIcNS_11char_traitsIcEENS_9allocatorIcEEEERNS_13basic_istreamIT_T0_EES9_RNS_12basic_stringIS6_S7_T1_EES6_
Ltmp15:
	b	LBB0_16
LBB0_16:                                ;   in Loop: Header=BB0_1 Depth=1
	add	x8, sp, #96
	add	x0, x8, #16
Ltmp16:
	add	x1, sp, #24
	bl	__ZNSt3__1lsIcNS_11char_traitsIcEENS_9allocatorIcEEEERNS_13basic_ostreamIT_T0_EES9_RKNS_12basic_stringIS6_S7_T1_EE
Ltmp17:
	b	LBB0_17
LBB0_17:                                ;   in Loop: Header=BB0_1 Depth=1
Ltmp18:
	ldr	x0, [sp, #8]                    ; 8-byte Folded Reload
	adrp	x1, l_.str.5@PAGE
	add	x1, x1, l_.str.5@PAGEOFF
	bl	__ZNSt3__1lsINS_11char_traitsIcEEEERNS_13basic_ostreamIcT_EES6_PKc
Ltmp19:
	b	LBB0_18
LBB0_18:                                ;   in Loop: Header=BB0_1 Depth=1
Ltmp20:
	add	x0, sp, #96
	bl	__ZNSt3__113basic_fstreamIcNS_11char_traitsIcEEE5closeEv
Ltmp21:
	b	LBB0_19
LBB0_19:                                ;   in Loop: Header=BB0_1 Depth=1
Ltmp25:
	add	x0, sp, #24
	bl	__ZNSt3__112basic_stringIcNS_11char_traitsIcEENS_9allocatorIcEEED1Ev
Ltmp26:
	b	LBB0_20
LBB0_20:                                ;   in Loop: Header=BB0_1 Depth=1
	str	wzr, [sp, #48]
	b	LBB0_21
LBB0_21:                                ;   in Loop: Header=BB0_1 Depth=1
Ltmp32:
	add	x0, sp, #64
	bl	__ZNSt3__112basic_stringIcNS_11char_traitsIcEENS_9allocatorIcEEED1Ev
Ltmp33:
	b	LBB0_22
LBB0_22:                                ;   in Loop: Header=BB0_1 Depth=1
	add	x0, sp, #96
	bl	__ZNSt3__113basic_fstreamIcNS_11char_traitsIcEEED1Ev
	ldr	w8, [sp, #48]
	subs	w8, w8, #0
	cset	w8, eq
	tbnz	w8, #0, LBB0_24
	b	LBB0_23
LBB0_23:
	b	LBB0_31
LBB0_24:                                ;   in Loop: Header=BB0_1 Depth=1
	b	LBB0_1
LBB0_25:
Ltmp22:
	mov	x8, x1
	str	x0, [sp, #56]
	str	w8, [sp, #52]
Ltmp23:
	add	x0, sp, #24
	bl	__ZNSt3__112basic_stringIcNS_11char_traitsIcEENS_9allocatorIcEEED1Ev
Ltmp24:
	b	LBB0_26
LBB0_26:
	b	LBB0_27
LBB0_27:
Ltmp30:
	add	x0, sp, #64
	bl	__ZNSt3__112basic_stringIcNS_11char_traitsIcEENS_9allocatorIcEEED1Ev
Ltmp31:
	b	LBB0_28
LBB0_28:
	b	LBB0_29
LBB0_29:
Ltmp35:
	add	x0, sp, #96
	bl	__ZNSt3__113basic_fstreamIcNS_11char_traitsIcEEED1Ev
Ltmp36:
	b	LBB0_30
LBB0_30:
	b	LBB0_34
LBB0_31:
	ldr	w8, [sp, #92]
	str	w8, [sp]                        ; 4-byte Folded Spill
	ldur	x9, [x29, #-24]
	adrp	x8, ___stack_chk_guard@GOTPAGE
	ldr	x8, [x8, ___stack_chk_guard@GOTPAGEOFF]
	ldr	x8, [x8]
	subs	x8, x8, x9
	cset	w8, eq
	tbnz	w8, #0, LBB0_33
	b	LBB0_32
LBB0_32:
	bl	___stack_chk_fail
LBB0_33:
	ldr	w0, [sp]                        ; 4-byte Folded Reload
	add	sp, sp, #688
	ldp	x29, x30, [sp, #16]             ; 16-byte Folded Reload
	ldp	x28, x27, [sp], #32             ; 16-byte Folded Reload
	ret
LBB0_34:
	ldr	x0, [sp, #56]
	bl	__Unwind_Resume
LBB0_35:
Ltmp37:
	bl	___clang_call_terminate
; %bb.36:
Lfunc_end0:
	.cfi_endproc
	.section	__TEXT,__gcc_except_tab
	.p2align	2
GCC_except_table0:
Lexception0:
	.byte	255                             ; @LPStart Encoding = omit
	.byte	155                             ; @TType Encoding = indirect pcrel sdata4
	.uleb128 Lttbase0-Lttbaseref0
Lttbaseref0:
	.byte	1                               ; Call site Encoding = uleb128
	.uleb128 Lcst_end0-Lcst_begin0
Lcst_begin0:
	.uleb128 Lfunc_begin0-Lfunc_begin0      ; >> Call Site 1 <<
	.uleb128 Ltmp0-Lfunc_begin0             ;   Call between Lfunc_begin0 and Ltmp0
	.byte	0                               ;     has no landing pad
	.byte	0                               ;   On action: cleanup
	.uleb128 Ltmp0-Lfunc_begin0             ; >> Call Site 2 <<
	.uleb128 Ltmp1-Ltmp0                    ;   Call between Ltmp0 and Ltmp1
	.uleb128 Ltmp34-Lfunc_begin0            ;     jumps to Ltmp34
	.byte	0                               ;   On action: cleanup
	.uleb128 Ltmp2-Lfunc_begin0             ; >> Call Site 3 <<
	.uleb128 Ltmp11-Ltmp2                   ;   Call between Ltmp2 and Ltmp11
	.uleb128 Ltmp29-Lfunc_begin0            ;     jumps to Ltmp29
	.byte	0                               ;   On action: cleanup
	.uleb128 Ltmp12-Lfunc_begin0            ; >> Call Site 4 <<
	.uleb128 Ltmp21-Ltmp12                  ;   Call between Ltmp12 and Ltmp21
	.uleb128 Ltmp22-Lfunc_begin0            ;     jumps to Ltmp22
	.byte	0                               ;   On action: cleanup
	.uleb128 Ltmp25-Lfunc_begin0            ; >> Call Site 5 <<
	.uleb128 Ltmp26-Ltmp25                  ;   Call between Ltmp25 and Ltmp26
	.uleb128 Ltmp29-Lfunc_begin0            ;     jumps to Ltmp29
	.byte	0                               ;   On action: cleanup
	.uleb128 Ltmp32-Lfunc_begin0            ; >> Call Site 6 <<
	.uleb128 Ltmp33-Ltmp32                  ;   Call between Ltmp32 and Ltmp33
	.uleb128 Ltmp34-Lfunc_begin0            ;     jumps to Ltmp34
	.byte	0                               ;   On action: cleanup
	.uleb128 Ltmp33-Lfunc_begin0            ; >> Call Site 7 <<
	.uleb128 Ltmp23-Ltmp33                  ;   Call between Ltmp33 and Ltmp23
	.byte	0                               ;     has no landing pad
	.byte	0                               ;   On action: cleanup
	.uleb128 Ltmp23-Lfunc_begin0            ; >> Call Site 8 <<
	.uleb128 Ltmp36-Ltmp23                  ;   Call between Ltmp23 and Ltmp36
	.uleb128 Ltmp37-Lfunc_begin0            ;     jumps to Ltmp37
	.byte	1                               ;   On action: 1
	.uleb128 Ltmp36-Lfunc_begin0            ; >> Call Site 9 <<
	.uleb128 Lfunc_end0-Ltmp36              ;   Call between Ltmp36 and Lfunc_end0
	.byte	0                               ;     has no landing pad
	.byte	0                               ;   On action: cleanup
Lcst_end0:
	.byte	1                               ; >> Action Record 1 <<
                                        ;   Catch TypeInfo 1
	.byte	0                               ;   No further actions
	.p2align	2
                                        ; >> Catch TypeInfos <<
	.long	0                               ; TypeInfo 1
Lttbase0:
	.p2align	2
                                        ; -- End function
	.section	__TEXT,__text,regular,pure_instructions
	.globl	__ZNSt3__1lsINS_11char_traitsIcEEEERNS_13basic_ostreamIcT_EES6_PKc ; -- Begin function _ZNSt3__1lsINS_11char_traitsIcEEEERNS_13basic_ostreamIcT_EES6_PKc
	.weak_definition	__ZNSt3__1lsINS_11char_traitsIcEEEERNS_13basic_ostreamIcT_EES6_PKc
	.p2align	2
__ZNSt3__1lsINS_11char_traitsIcEEEERNS_13basic_ostreamIcT_EES6_PKc: ; @_ZNSt3__1lsINS_11char_traitsIcEEEERNS_13basic_ostreamIcT_EES6_PKc
	.cfi_startproc
; %bb.0:
	sub	sp, sp, #48
	.cfi_def_cfa_offset 48
	stp	x29, x30, [sp, #32]             ; 16-byte Folded Spill
	add	x29, sp, #32
	.cfi_def_cfa w29, 16
	.cfi_offset w30, -8
	.cfi_offset w29, -16
	stur	x0, [x29, #-8]
	str	x1, [sp, #16]
	ldur	x8, [x29, #-8]
	str	x8, [sp, #8]                    ; 8-byte Folded Spill
	ldr	x8, [sp, #16]
	str	x8, [sp]                        ; 8-byte Folded Spill
	ldr	x0, [sp, #16]
	bl	__ZNSt3__111char_traitsIcE6lengthEPKc
	ldr	x1, [sp]                        ; 8-byte Folded Reload
	mov	x2, x0
	ldr	x0, [sp, #8]                    ; 8-byte Folded Reload
	bl	__ZNSt3__124__put_character_sequenceIcNS_11char_traitsIcEEEERNS_13basic_ostreamIT_T0_EES7_PKS4_m
	ldp	x29, x30, [sp, #32]             ; 16-byte Folded Reload
	add	sp, sp, #48
	ret
	.cfi_endproc
                                        ; -- End function
	.private_extern	__ZNSt3__113basic_fstreamIcNS_11char_traitsIcEEEC1Ev ; -- Begin function _ZNSt3__113basic_fstreamIcNS_11char_traitsIcEEEC1Ev
	.globl	__ZNSt3__113basic_fstreamIcNS_11char_traitsIcEEEC1Ev
	.weak_def_can_be_hidden	__ZNSt3__113basic_fstreamIcNS_11char_traitsIcEEEC1Ev
	.p2align	2
__ZNSt3__113basic_fstreamIcNS_11char_traitsIcEEEC1Ev: ; @_ZNSt3__113basic_fstreamIcNS_11char_traitsIcEEEC1Ev
Lfunc_begin1:
	.cfi_startproc
	.cfi_personality 155, ___gxx_personality_v0
	.cfi_lsda 16, Lexception1
; %bb.0:
	sub	sp, sp, #80
	.cfi_def_cfa_offset 80
	stp	x29, x30, [sp, #64]             ; 16-byte Folded Spill
	add	x29, sp, #64
	.cfi_def_cfa w29, 16
	.cfi_offset w30, -8
	.cfi_offset w29, -16
	adrp	x8, __ZTVNSt3__113basic_fstreamIcNS_11char_traitsIcEEEE@GOTPAGE
	ldr	x8, [x8, __ZTVNSt3__113basic_fstreamIcNS_11char_traitsIcEEEE@GOTPAGEOFF]
	add	x9, x8, #24
	str	x9, [sp]                        ; 8-byte Folded Spill
	add	x9, x8, #104
	str	x9, [sp, #8]                    ; 8-byte Folded Spill
	add	x8, x8, #64
	str	x8, [sp, #16]                   ; 8-byte Folded Spill
	adrp	x8, __ZTTNSt3__113basic_fstreamIcNS_11char_traitsIcEEEE@GOTPAGE
	ldr	x8, [x8, __ZTTNSt3__113basic_fstreamIcNS_11char_traitsIcEEEE@GOTPAGEOFF]
	add	x8, x8, #8
	str	x8, [sp, #24]                   ; 8-byte Folded Spill
	stur	x0, [x29, #-8]
	ldur	x8, [x29, #-8]
	str	x8, [sp, #32]                   ; 8-byte Folded Spill
	add	x0, x8, #432
	bl	__ZNSt3__19basic_iosIcNS_11char_traitsIcEEEC2B6v15006Ev
	ldr	x11, [sp]                       ; 8-byte Folded Reload
	ldr	x10, [sp, #8]                   ; 8-byte Folded Reload
	ldr	x9, [sp, #16]                   ; 8-byte Folded Reload
	ldr	x1, [sp, #24]                   ; 8-byte Folded Reload
	ldr	x8, [sp, #32]                   ; 8-byte Folded Reload
	str	x11, [x8]
	str	x10, [x8, #432]
	str	x9, [x8, #16]
Ltmp38:
	mov	x0, x8
	add	x2, x8, #24
	bl	__ZNSt3__114basic_iostreamIcNS_11char_traitsIcEEEC2B6v15006EPNS_15basic_streambufIcS2_EE
Ltmp39:
	b	LBB2_1
LBB2_1:
	ldr	x8, [sp, #32]                   ; 8-byte Folded Reload
	ldr	x9, [sp, #16]                   ; 8-byte Folded Reload
	ldr	x10, [sp, #8]                   ; 8-byte Folded Reload
	ldr	x11, [sp]                       ; 8-byte Folded Reload
	str	x11, [x8]
	str	x10, [x8, #432]
	str	x9, [x8, #16]
	add	x0, x8, #24
Ltmp41:
	bl	__ZNSt3__113basic_filebufIcNS_11char_traitsIcEEEC1Ev
Ltmp42:
	b	LBB2_2
LBB2_2:
	ldr	x0, [sp, #32]                   ; 8-byte Folded Reload
	ldp	x29, x30, [sp, #64]             ; 16-byte Folded Reload
	add	sp, sp, #80
	ret
LBB2_3:
Ltmp40:
	mov	x8, x1
	stur	x0, [x29, #-16]
	stur	w8, [x29, #-20]
	b	LBB2_6
LBB2_4:
Ltmp43:
	mov	x9, x0
	ldr	x0, [sp, #32]                   ; 8-byte Folded Reload
	mov	x8, x1
	ldr	x1, [sp, #24]                   ; 8-byte Folded Reload
                                        ; kill: def $w8 killed $w8 killed $x8
	stur	x9, [x29, #-16]
	stur	w8, [x29, #-20]
Ltmp44:
	bl	__ZNSt3__114basic_iostreamIcNS_11char_traitsIcEEED2Ev
Ltmp45:
	b	LBB2_5
LBB2_5:
	b	LBB2_6
LBB2_6:
	ldr	x8, [sp, #32]                   ; 8-byte Folded Reload
	add	x0, x8, #432
Ltmp46:
	bl	__ZNSt3__19basic_iosIcNS_11char_traitsIcEEED2Ev
Ltmp47:
	b	LBB2_7
LBB2_7:
	b	LBB2_8
LBB2_8:
	ldur	x0, [x29, #-16]
	bl	__Unwind_Resume
LBB2_9:
Ltmp48:
	bl	___clang_call_terminate
Lfunc_end1:
	.cfi_endproc
	.section	__TEXT,__gcc_except_tab
	.p2align	2
GCC_except_table2:
Lexception1:
	.byte	255                             ; @LPStart Encoding = omit
	.byte	155                             ; @TType Encoding = indirect pcrel sdata4
	.uleb128 Lttbase1-Lttbaseref1
Lttbaseref1:
	.byte	1                               ; Call site Encoding = uleb128
	.uleb128 Lcst_end1-Lcst_begin1
Lcst_begin1:
	.uleb128 Lfunc_begin1-Lfunc_begin1      ; >> Call Site 1 <<
	.uleb128 Ltmp38-Lfunc_begin1            ;   Call between Lfunc_begin1 and Ltmp38
	.byte	0                               ;     has no landing pad
	.byte	0                               ;   On action: cleanup
	.uleb128 Ltmp38-Lfunc_begin1            ; >> Call Site 2 <<
	.uleb128 Ltmp39-Ltmp38                  ;   Call between Ltmp38 and Ltmp39
	.uleb128 Ltmp40-Lfunc_begin1            ;     jumps to Ltmp40
	.byte	0                               ;   On action: cleanup
	.uleb128 Ltmp41-Lfunc_begin1            ; >> Call Site 3 <<
	.uleb128 Ltmp42-Ltmp41                  ;   Call between Ltmp41 and Ltmp42
	.uleb128 Ltmp43-Lfunc_begin1            ;     jumps to Ltmp43
	.byte	0                               ;   On action: cleanup
	.uleb128 Ltmp44-Lfunc_begin1            ; >> Call Site 4 <<
	.uleb128 Ltmp47-Ltmp44                  ;   Call between Ltmp44 and Ltmp47
	.uleb128 Ltmp48-Lfunc_begin1            ;     jumps to Ltmp48
	.byte	1                               ;   On action: 1
	.uleb128 Ltmp47-Lfunc_begin1            ; >> Call Site 5 <<
	.uleb128 Lfunc_end1-Ltmp47              ;   Call between Ltmp47 and Lfunc_end1
	.byte	0                               ;     has no landing pad
	.byte	0                               ;   On action: cleanup
Lcst_end1:
	.byte	1                               ; >> Action Record 1 <<
                                        ;   Catch TypeInfo 1
	.byte	0                               ;   No further actions
	.p2align	2
                                        ; >> Catch TypeInfos <<
	.long	0                               ; TypeInfo 1
Lttbase1:
	.p2align	2
                                        ; -- End function
	.section	__TEXT,__text,regular,pure_instructions
	.private_extern	__ZNSt3__112basic_stringIcNS_11char_traitsIcEENS_9allocatorIcEEEC1B6v15006Ev ; -- Begin function _ZNSt3__112basic_stringIcNS_11char_traitsIcEENS_9allocatorIcEEEC1B6v15006Ev
	.globl	__ZNSt3__112basic_stringIcNS_11char_traitsIcEENS_9allocatorIcEEEC1B6v15006Ev
	.weak_def_can_be_hidden	__ZNSt3__112basic_stringIcNS_11char_traitsIcEENS_9allocatorIcEEEC1B6v15006Ev
	.p2align	2
__ZNSt3__112basic_stringIcNS_11char_traitsIcEENS_9allocatorIcEEEC1B6v15006Ev: ; @_ZNSt3__112basic_stringIcNS_11char_traitsIcEENS_9allocatorIcEEEC1B6v15006Ev
	.cfi_startproc
; %bb.0:
	sub	sp, sp, #32
	.cfi_def_cfa_offset 32
	stp	x29, x30, [sp, #16]             ; 16-byte Folded Spill
	add	x29, sp, #16
	.cfi_def_cfa w29, 16
	.cfi_offset w30, -8
	.cfi_offset w29, -16
	str	x0, [sp, #8]
	ldr	x0, [sp, #8]
	str	x0, [sp]                        ; 8-byte Folded Spill
	bl	__ZNSt3__112basic_stringIcNS_11char_traitsIcEENS_9allocatorIcEEEC2B6v15006Ev
	ldr	x0, [sp]                        ; 8-byte Folded Reload
	ldp	x29, x30, [sp, #16]             ; 16-byte Folded Reload
	add	sp, sp, #32
	ret
	.cfi_endproc
                                        ; -- End function
	.globl	__ZNSt3__1rsIcNS_11char_traitsIcEENS_9allocatorIcEEEERNS_13basic_istreamIT_T0_EES9_RNS_12basic_stringIS6_S7_T1_EE ; -- Begin function _ZNSt3__1rsIcNS_11char_traitsIcEENS_9allocatorIcEEEERNS_13basic_istreamIT_T0_EES9_RNS_12basic_stringIS6_S7_T1_EE
	.weak_definition	__ZNSt3__1rsIcNS_11char_traitsIcEENS_9allocatorIcEEEERNS_13basic_istreamIT_T0_EES9_RNS_12basic_stringIS6_S7_T1_EE
	.p2align	2
__ZNSt3__1rsIcNS_11char_traitsIcEENS_9allocatorIcEEEERNS_13basic_istreamIT_T0_EES9_RNS_12basic_stringIS6_S7_T1_EE: ; @_ZNSt3__1rsIcNS_11char_traitsIcEENS_9allocatorIcEEEERNS_13basic_istreamIT_T0_EES9_RNS_12basic_stringIS6_S7_T1_EE
Lfunc_begin2:
	.cfi_startproc
	.cfi_personality 155, ___gxx_personality_v0
	.cfi_lsda 16, Lexception2
; %bb.0:
	sub	sp, sp, #144
	.cfi_def_cfa_offset 144
	stp	x29, x30, [sp, #128]            ; 16-byte Folded Spill
	add	x29, sp, #128
	.cfi_def_cfa w29, 16
	.cfi_offset w30, -8
	.cfi_offset w29, -16
	stur	x0, [x29, #-8]
	stur	x1, [x29, #-16]
	mov	w8, #0
	stur	wzr, [x29, #-20]
	ldur	x1, [x29, #-8]
	sub	x0, x29, #21
	str	x0, [sp, #40]                   ; 8-byte Folded Spill
	and	w2, w8, #0x1
	bl	__ZNSt3__113basic_istreamIcNS_11char_traitsIcEEE6sentryC1ERS3_b
	ldr	x0, [sp, #40]                   ; 8-byte Folded Reload
	bl	__ZNKSt3__113basic_istreamIcNS_11char_traitsIcEEE6sentrycvbB6v15006Ev
	tbz	w0, #0, LBB4_35
	b	LBB4_1
LBB4_1:
	ldur	x0, [x29, #-16]
	bl	__ZNSt3__112basic_stringIcNS_11char_traitsIcEENS_9allocatorIcEEE5clearB6v15006Ev
	ldur	x8, [x29, #-8]
	ldr	x9, [x8]
	ldur	x9, [x9, #-24]
	add	x0, x8, x9
	bl	__ZNKSt3__18ios_base5widthB6v15006Ev
	stur	x0, [x29, #-32]
	ldur	x8, [x29, #-32]
	subs	x8, x8, #0
	cset	w8, gt
	tbnz	w8, #0, LBB4_3
	b	LBB4_2
LBB4_2:
	ldur	x0, [x29, #-16]
	bl	__ZNKSt3__112basic_stringIcNS_11char_traitsIcEENS_9allocatorIcEEE8max_sizeB6v15006Ev
	stur	x0, [x29, #-32]
	b	LBB4_3
LBB4_3:
	ldur	x8, [x29, #-32]
	subs	x8, x8, #0
	cset	w8, gt
	tbnz	w8, #0, LBB4_5
	b	LBB4_4
LBB4_4:
	bl	__ZNSt3__114numeric_limitsIlE3maxB6v15006Ev
	stur	x0, [x29, #-32]
	b	LBB4_5
LBB4_5:
	stur	xzr, [x29, #-40]
	ldur	x8, [x29, #-8]
	ldr	x9, [x8]
	ldur	x9, [x9, #-24]
	add	x0, x8, x9
Ltmp49:
	sub	x8, x29, #56
	bl	__ZNKSt3__18ios_base6getlocEv
Ltmp50:
	b	LBB4_6
LBB4_6:
Ltmp51:
	sub	x0, x29, #56
	bl	__ZNSt3__19use_facetB6v15006INS_5ctypeIcEEEERKT_RKNS_6localeE
	str	x0, [sp, #32]                   ; 8-byte Folded Spill
Ltmp52:
	b	LBB4_7
LBB4_7:
Ltmp56:
	sub	x0, x29, #56
	bl	__ZNSt3__16localeD1Ev
Ltmp57:
	b	LBB4_8
LBB4_8:
	ldr	x8, [sp, #32]                   ; 8-byte Folded Reload
	stur	x8, [x29, #-48]
	b	LBB4_9
LBB4_9:                                 ; =>This Inner Loop Header: Depth=1
	ldur	x8, [x29, #-40]
	ldur	x9, [x29, #-32]
	subs	x8, x8, x9
	cset	w8, ge
	tbnz	w8, #0, LBB4_28
	b	LBB4_10
LBB4_10:                                ;   in Loop: Header=BB4_9 Depth=1
	ldur	x8, [x29, #-8]
	ldr	x9, [x8]
	ldur	x9, [x9, #-24]
	add	x0, x8, x9
Ltmp58:
	bl	__ZNKSt3__19basic_iosIcNS_11char_traitsIcEEE5rdbufB6v15006Ev
	str	x0, [sp, #24]                   ; 8-byte Folded Spill
Ltmp59:
	b	LBB4_11
LBB4_11:                                ;   in Loop: Header=BB4_9 Depth=1
Ltmp60:
	ldr	x0, [sp, #24]                   ; 8-byte Folded Reload
	bl	__ZNSt3__115basic_streambufIcNS_11char_traitsIcEEE5sgetcB6v15006Ev
	str	w0, [sp, #20]                   ; 4-byte Folded Spill
Ltmp61:
	b	LBB4_12
LBB4_12:                                ;   in Loop: Header=BB4_9 Depth=1
	ldr	w8, [sp, #20]                   ; 4-byte Folded Reload
	str	w8, [sp, #56]
	ldr	w8, [sp, #56]
	str	w8, [sp, #16]                   ; 4-byte Folded Spill
	bl	__ZNSt3__111char_traitsIcE3eofEv
	mov	x1, x0
	ldr	w0, [sp, #16]                   ; 4-byte Folded Reload
	bl	__ZNSt3__111char_traitsIcE11eq_int_typeEii
	tbz	w0, #0, LBB4_21
	b	LBB4_13
LBB4_13:
	ldur	w8, [x29, #-20]
	orr	w8, w8, #0x2
	stur	w8, [x29, #-20]
	b	LBB4_28
LBB4_14:
Ltmp70:
	mov	x8, x1
	str	x0, [sp, #64]
	str	w8, [sp, #60]
	b	LBB4_17
LBB4_15:
Ltmp53:
	mov	x8, x1
	str	x0, [sp, #64]
	str	w8, [sp, #60]
Ltmp54:
	sub	x0, x29, #56
	bl	__ZNSt3__16localeD1Ev
Ltmp55:
	b	LBB4_16
LBB4_16:
	b	LBB4_17
LBB4_17:
	ldr	x0, [sp, #64]
	bl	___cxa_begin_catch
	ldur	w8, [x29, #-20]
	orr	w8, w8, #0x1
	stur	w8, [x29, #-20]
	ldur	x8, [x29, #-8]
	ldr	x9, [x8]
	ldur	x9, [x9, #-24]
	add	x0, x8, x9
	ldur	w1, [x29, #-20]
Ltmp71:
	bl	__ZNSt3__18ios_base18__setstate_nothrowB6v15006Ej
Ltmp72:
	b	LBB4_18
LBB4_18:
	ldur	x8, [x29, #-8]
	ldr	x9, [x8]
	ldur	x9, [x9, #-24]
	add	x0, x8, x9
Ltmp73:
	bl	__ZNKSt3__19basic_iosIcNS_11char_traitsIcEEE10exceptionsB6v15006Ev
	str	w0, [sp, #12]                   ; 4-byte Folded Spill
Ltmp74:
	b	LBB4_19
LBB4_19:
	ldr	w8, [sp, #12]                   ; 4-byte Folded Reload
	ands	w8, w8, #0x1
	cset	w8, eq
	tbnz	w8, #0, LBB4_32
	b	LBB4_20
LBB4_20:
Ltmp75:
	bl	___cxa_rethrow
Ltmp76:
	b	LBB4_38
LBB4_21:                                ;   in Loop: Header=BB4_9 Depth=1
	ldr	w0, [sp, #56]
	bl	__ZNSt3__111char_traitsIcE12to_char_typeEi
	strb	w0, [sp, #55]
	ldur	x0, [x29, #-48]
	ldrsb	w2, [sp, #55]
Ltmp62:
	mov	w1, #16384
	bl	__ZNKSt3__15ctypeIcE2isB6v15006Ejc
	str	w0, [sp, #8]                    ; 4-byte Folded Spill
Ltmp63:
	b	LBB4_22
LBB4_22:                                ;   in Loop: Header=BB4_9 Depth=1
	ldr	w8, [sp, #8]                    ; 4-byte Folded Reload
	tbz	w8, #0, LBB4_24
	b	LBB4_23
LBB4_23:
	b	LBB4_28
LBB4_24:                                ;   in Loop: Header=BB4_9 Depth=1
	ldur	x0, [x29, #-16]
	ldrsb	w1, [sp, #55]
Ltmp64:
	bl	__ZNSt3__112basic_stringIcNS_11char_traitsIcEENS_9allocatorIcEEE9push_backEc
Ltmp65:
	b	LBB4_25
LBB4_25:                                ;   in Loop: Header=BB4_9 Depth=1
	ldur	x8, [x29, #-40]
	add	x8, x8, #1
	stur	x8, [x29, #-40]
	ldur	x8, [x29, #-8]
	ldr	x9, [x8]
	ldur	x9, [x9, #-24]
	add	x0, x8, x9
Ltmp66:
	bl	__ZNKSt3__19basic_iosIcNS_11char_traitsIcEEE5rdbufB6v15006Ev
	str	x0, [sp]                        ; 8-byte Folded Spill
Ltmp67:
	b	LBB4_26
LBB4_26:                                ;   in Loop: Header=BB4_9 Depth=1
Ltmp68:
	ldr	x0, [sp]                        ; 8-byte Folded Reload
	bl	__ZNSt3__115basic_streambufIcNS_11char_traitsIcEEE6sbumpcB6v15006Ev
Ltmp69:
	b	LBB4_27
LBB4_27:                                ;   in Loop: Header=BB4_9 Depth=1
	b	LBB4_9
LBB4_28:
	ldur	x8, [x29, #-8]
	ldr	x9, [x8]
	ldur	x9, [x9, #-24]
	add	x0, x8, x9
	mov	x1, #0
	bl	__ZNSt3__18ios_base5widthB6v15006El
	ldur	x8, [x29, #-40]
	subs	x8, x8, #0
	cset	w8, ne
	tbnz	w8, #0, LBB4_30
	b	LBB4_29
LBB4_29:
	ldur	w8, [x29, #-20]
	orr	w8, w8, #0x4
	stur	w8, [x29, #-20]
	b	LBB4_30
LBB4_30:
	b	LBB4_33
LBB4_31:
Ltmp77:
	mov	x8, x1
	str	x0, [sp, #64]
	str	w8, [sp, #60]
Ltmp78:
	bl	___cxa_end_catch
Ltmp79:
	b	LBB4_34
LBB4_32:
	bl	___cxa_end_catch
	b	LBB4_33
LBB4_33:
	ldur	x8, [x29, #-8]
	ldr	x9, [x8]
	ldur	x9, [x9, #-24]
	add	x0, x8, x9
	ldur	w1, [x29, #-20]
	bl	__ZNSt3__19basic_iosIcNS_11char_traitsIcEEE8setstateB6v15006Ej
	b	LBB4_35
LBB4_34:
	b	LBB4_36
LBB4_35:
	ldur	x0, [x29, #-8]
	ldp	x29, x30, [sp, #128]            ; 16-byte Folded Reload
	add	sp, sp, #144
	ret
LBB4_36:
	ldr	x0, [sp, #64]
	bl	__Unwind_Resume
LBB4_37:
Ltmp80:
	bl	___clang_call_terminate
LBB4_38:
	brk	#0x1
Lfunc_end2:
	.cfi_endproc
	.section	__TEXT,__gcc_except_tab
	.p2align	2
GCC_except_table4:
Lexception2:
	.byte	255                             ; @LPStart Encoding = omit
	.byte	155                             ; @TType Encoding = indirect pcrel sdata4
	.uleb128 Lttbase2-Lttbaseref2
Lttbaseref2:
	.byte	1                               ; Call site Encoding = uleb128
	.uleb128 Lcst_end2-Lcst_begin2
Lcst_begin2:
	.uleb128 Lfunc_begin2-Lfunc_begin2      ; >> Call Site 1 <<
	.uleb128 Ltmp49-Lfunc_begin2            ;   Call between Lfunc_begin2 and Ltmp49
	.byte	0                               ;     has no landing pad
	.byte	0                               ;   On action: cleanup
	.uleb128 Ltmp49-Lfunc_begin2            ; >> Call Site 2 <<
	.uleb128 Ltmp50-Ltmp49                  ;   Call between Ltmp49 and Ltmp50
	.uleb128 Ltmp70-Lfunc_begin2            ;     jumps to Ltmp70
	.byte	1                               ;   On action: 1
	.uleb128 Ltmp51-Lfunc_begin2            ; >> Call Site 3 <<
	.uleb128 Ltmp52-Ltmp51                  ;   Call between Ltmp51 and Ltmp52
	.uleb128 Ltmp53-Lfunc_begin2            ;     jumps to Ltmp53
	.byte	1                               ;   On action: 1
	.uleb128 Ltmp56-Lfunc_begin2            ; >> Call Site 4 <<
	.uleb128 Ltmp61-Ltmp56                  ;   Call between Ltmp56 and Ltmp61
	.uleb128 Ltmp70-Lfunc_begin2            ;     jumps to Ltmp70
	.byte	1                               ;   On action: 1
	.uleb128 Ltmp54-Lfunc_begin2            ; >> Call Site 5 <<
	.uleb128 Ltmp55-Ltmp54                  ;   Call between Ltmp54 and Ltmp55
	.uleb128 Ltmp80-Lfunc_begin2            ;     jumps to Ltmp80
	.byte	1                               ;   On action: 1
	.uleb128 Ltmp55-Lfunc_begin2            ; >> Call Site 6 <<
	.uleb128 Ltmp71-Ltmp55                  ;   Call between Ltmp55 and Ltmp71
	.byte	0                               ;     has no landing pad
	.byte	0                               ;   On action: cleanup
	.uleb128 Ltmp71-Lfunc_begin2            ; >> Call Site 7 <<
	.uleb128 Ltmp76-Ltmp71                  ;   Call between Ltmp71 and Ltmp76
	.uleb128 Ltmp77-Lfunc_begin2            ;     jumps to Ltmp77
	.byte	0                               ;   On action: cleanup
	.uleb128 Ltmp62-Lfunc_begin2            ; >> Call Site 8 <<
	.uleb128 Ltmp69-Ltmp62                  ;   Call between Ltmp62 and Ltmp69
	.uleb128 Ltmp70-Lfunc_begin2            ;     jumps to Ltmp70
	.byte	1                               ;   On action: 1
	.uleb128 Ltmp78-Lfunc_begin2            ; >> Call Site 9 <<
	.uleb128 Ltmp79-Ltmp78                  ;   Call between Ltmp78 and Ltmp79
	.uleb128 Ltmp80-Lfunc_begin2            ;     jumps to Ltmp80
	.byte	1                               ;   On action: 1
	.uleb128 Ltmp79-Lfunc_begin2            ; >> Call Site 10 <<
	.uleb128 Lfunc_end2-Ltmp79              ;   Call between Ltmp79 and Lfunc_end2
	.byte	0                               ;     has no landing pad
	.byte	0                               ;   On action: cleanup
Lcst_end2:
	.byte	1                               ; >> Action Record 1 <<
                                        ;   Catch TypeInfo 1
	.byte	0                               ;   No further actions
	.p2align	2
                                        ; >> Catch TypeInfos <<
	.long	0                               ; TypeInfo 1
Lttbase2:
	.p2align	2
                                        ; -- End function
	.section	__TEXT,__text,regular,pure_instructions
	.globl	__ZNSt3__113basic_fstreamIcNS_11char_traitsIcEEE4openERKNS_12basic_stringIcS2_NS_9allocatorIcEEEEj ; -- Begin function _ZNSt3__113basic_fstreamIcNS_11char_traitsIcEEE4openERKNS_12basic_stringIcS2_NS_9allocatorIcEEEEj
	.weak_definition	__ZNSt3__113basic_fstreamIcNS_11char_traitsIcEEE4openERKNS_12basic_stringIcS2_NS_9allocatorIcEEEEj
	.p2align	2
__ZNSt3__113basic_fstreamIcNS_11char_traitsIcEEE4openERKNS_12basic_stringIcS2_NS_9allocatorIcEEEEj: ; @_ZNSt3__113basic_fstreamIcNS_11char_traitsIcEEE4openERKNS_12basic_stringIcS2_NS_9allocatorIcEEEEj
	.cfi_startproc
; %bb.0:
	sub	sp, sp, #48
	.cfi_def_cfa_offset 48
	stp	x29, x30, [sp, #32]             ; 16-byte Folded Spill
	add	x29, sp, #32
	.cfi_def_cfa w29, 16
	.cfi_offset w30, -8
	.cfi_offset w29, -16
	stur	x0, [x29, #-8]
	str	x1, [sp, #16]
	str	w2, [sp, #12]
	ldur	x8, [x29, #-8]
	str	x8, [sp]                        ; 8-byte Folded Spill
	ldr	x1, [sp, #16]
	ldr	w2, [sp, #12]
	add	x0, x8, #24
	bl	__ZNSt3__113basic_filebufIcNS_11char_traitsIcEEE4openERKNS_12basic_stringIcS2_NS_9allocatorIcEEEEj
	subs	x8, x0, #0
	cset	w8, eq
	tbnz	w8, #0, LBB5_2
	b	LBB5_1
LBB5_1:
	ldr	x8, [sp]                        ; 8-byte Folded Reload
	ldr	x9, [x8]
	ldur	x9, [x9, #-24]
	add	x0, x8, x9
	mov	w1, #0
	bl	__ZNSt3__19basic_iosIcNS_11char_traitsIcEEE5clearB6v15006Ej
	b	LBB5_3
LBB5_2:
	ldr	x8, [sp]                        ; 8-byte Folded Reload
	ldr	x9, [x8]
	ldur	x9, [x9, #-24]
	add	x0, x8, x9
	mov	w1, #4
	bl	__ZNSt3__19basic_iosIcNS_11char_traitsIcEEE8setstateB6v15006Ej
	b	LBB5_3
LBB5_3:
	ldp	x29, x30, [sp, #32]             ; 16-byte Folded Reload
	add	sp, sp, #48
	ret
	.cfi_endproc
                                        ; -- End function
	.private_extern	__ZNKSt3__19basic_iosIcNS_11char_traitsIcEEEntB6v15006Ev ; -- Begin function _ZNKSt3__19basic_iosIcNS_11char_traitsIcEEEntB6v15006Ev
	.globl	__ZNKSt3__19basic_iosIcNS_11char_traitsIcEEEntB6v15006Ev
	.weak_definition	__ZNKSt3__19basic_iosIcNS_11char_traitsIcEEEntB6v15006Ev
	.p2align	2
__ZNKSt3__19basic_iosIcNS_11char_traitsIcEEEntB6v15006Ev: ; @_ZNKSt3__19basic_iosIcNS_11char_traitsIcEEEntB6v15006Ev
	.cfi_startproc
; %bb.0:
	sub	sp, sp, #32
	.cfi_def_cfa_offset 32
	stp	x29, x30, [sp, #16]             ; 16-byte Folded Spill
	add	x29, sp, #16
	.cfi_def_cfa w29, 16
	.cfi_offset w30, -8
	.cfi_offset w29, -16
	str	x0, [sp, #8]
	ldr	x0, [sp, #8]
	bl	__ZNKSt3__19basic_iosIcNS_11char_traitsIcEEE4failB6v15006Ev
	and	w0, w0, #0x1
	ldp	x29, x30, [sp, #16]             ; 16-byte Folded Reload
	add	sp, sp, #32
	ret
	.cfi_endproc
                                        ; -- End function
	.globl	__ZNSt3__17getlineIcNS_11char_traitsIcEENS_9allocatorIcEEEERNS_13basic_istreamIT_T0_EES9_RNS_12basic_stringIS6_S7_T1_EES6_ ; -- Begin function _ZNSt3__17getlineIcNS_11char_traitsIcEENS_9allocatorIcEEEERNS_13basic_istreamIT_T0_EES9_RNS_12basic_stringIS6_S7_T1_EES6_
	.weak_definition	__ZNSt3__17getlineIcNS_11char_traitsIcEENS_9allocatorIcEEEERNS_13basic_istreamIT_T0_EES9_RNS_12basic_stringIS6_S7_T1_EES6_
	.p2align	2
__ZNSt3__17getlineIcNS_11char_traitsIcEENS_9allocatorIcEEEERNS_13basic_istreamIT_T0_EES9_RNS_12basic_stringIS6_S7_T1_EES6_: ; @_ZNSt3__17getlineIcNS_11char_traitsIcEENS_9allocatorIcEEEERNS_13basic_istreamIT_T0_EES9_RNS_12basic_stringIS6_S7_T1_EES6_
Lfunc_begin3:
	.cfi_startproc
	.cfi_personality 155, ___gxx_personality_v0
	.cfi_lsda 16, Lexception3
; %bb.0:
	sub	sp, sp, #128
	.cfi_def_cfa_offset 128
	stp	x29, x30, [sp, #112]            ; 16-byte Folded Spill
	add	x29, sp, #112
	.cfi_def_cfa w29, 16
	.cfi_offset w30, -8
	.cfi_offset w29, -16
	stur	x0, [x29, #-8]
	stur	x1, [x29, #-16]
	sturb	w2, [x29, #-17]
	stur	wzr, [x29, #-24]
	ldur	x1, [x29, #-8]
	sub	x0, x29, #25
	str	x0, [sp, #40]                   ; 8-byte Folded Spill
	mov	w8, #1
	and	w2, w8, #0x1
	bl	__ZNSt3__113basic_istreamIcNS_11char_traitsIcEEE6sentryC1ERS3_b
	ldr	x0, [sp, #40]                   ; 8-byte Folded Reload
	bl	__ZNKSt3__113basic_istreamIcNS_11char_traitsIcEEE6sentrycvbB6v15006Ev
	tbz	w0, #0, LBB7_24
	b	LBB7_1
LBB7_1:
	ldur	x0, [x29, #-16]
	bl	__ZNSt3__112basic_stringIcNS_11char_traitsIcEENS_9allocatorIcEEE5clearB6v15006Ev
	stur	xzr, [x29, #-40]
	b	LBB7_2
LBB7_2:                                 ; =>This Inner Loop Header: Depth=1
	b	LBB7_3
LBB7_3:                                 ;   in Loop: Header=BB7_2 Depth=1
	ldur	x8, [x29, #-8]
	ldr	x9, [x8]
	ldur	x9, [x9, #-24]
	add	x0, x8, x9
Ltmp81:
	bl	__ZNKSt3__19basic_iosIcNS_11char_traitsIcEEE5rdbufB6v15006Ev
	str	x0, [sp, #32]                   ; 8-byte Folded Spill
Ltmp82:
	b	LBB7_4
LBB7_4:                                 ;   in Loop: Header=BB7_2 Depth=1
Ltmp83:
	ldr	x0, [sp, #32]                   ; 8-byte Folded Reload
	bl	__ZNSt3__115basic_streambufIcNS_11char_traitsIcEEE6sbumpcB6v15006Ev
	str	w0, [sp, #28]                   ; 4-byte Folded Spill
Ltmp84:
	b	LBB7_5
LBB7_5:                                 ;   in Loop: Header=BB7_2 Depth=1
	ldr	w8, [sp, #28]                   ; 4-byte Folded Reload
	stur	w8, [x29, #-44]
	ldur	w8, [x29, #-44]
	str	w8, [sp, #24]                   ; 4-byte Folded Spill
	bl	__ZNSt3__111char_traitsIcE3eofEv
	mov	x1, x0
	ldr	w0, [sp, #24]                   ; 4-byte Folded Reload
	bl	__ZNSt3__111char_traitsIcE11eq_int_typeEii
	tbz	w0, #0, LBB7_11
	b	LBB7_6
LBB7_6:
	ldur	w8, [x29, #-24]
	orr	w8, w8, #0x2
	stur	w8, [x29, #-24]
	b	LBB7_17
LBB7_7:
Ltmp87:
	mov	x8, x1
	str	x0, [sp, #56]
	str	w8, [sp, #52]
	b	LBB7_8
LBB7_8:
	ldr	x0, [sp, #56]
	bl	___cxa_begin_catch
	ldur	w8, [x29, #-24]
	orr	w8, w8, #0x1
	stur	w8, [x29, #-24]
	ldur	x8, [x29, #-8]
	ldr	x9, [x8]
	ldur	x9, [x9, #-24]
	add	x0, x8, x9
	ldur	w1, [x29, #-24]
	bl	__ZNSt3__18ios_base18__setstate_nothrowB6v15006Ej
	ldur	x8, [x29, #-8]
	ldr	x9, [x8]
	ldur	x9, [x9, #-24]
	add	x0, x8, x9
Ltmp88:
	bl	__ZNKSt3__19basic_iosIcNS_11char_traitsIcEEE10exceptionsB6v15006Ev
	str	w0, [sp, #20]                   ; 4-byte Folded Spill
Ltmp89:
	b	LBB7_9
LBB7_9:
	ldr	w8, [sp, #20]                   ; 4-byte Folded Reload
	ands	w8, w8, #0x1
	cset	w8, eq
	tbnz	w8, #0, LBB7_21
	b	LBB7_10
LBB7_10:
Ltmp90:
	bl	___cxa_rethrow
Ltmp91:
	b	LBB7_27
LBB7_11:                                ;   in Loop: Header=BB7_2 Depth=1
	ldur	x8, [x29, #-40]
	add	x8, x8, #1
	stur	x8, [x29, #-40]
	ldur	w0, [x29, #-44]
	bl	__ZNSt3__111char_traitsIcE12to_char_typeEi
	strb	w0, [sp, #51]
	ldrsb	w0, [sp, #51]
	ldursb	w1, [x29, #-17]
	bl	__ZNSt3__111char_traitsIcE2eqEcc
	tbz	w0, #0, LBB7_13
	b	LBB7_12
LBB7_12:
	b	LBB7_17
LBB7_13:                                ;   in Loop: Header=BB7_2 Depth=1
	ldur	x0, [x29, #-16]
	ldrsb	w1, [sp, #51]
Ltmp85:
	bl	__ZNSt3__112basic_stringIcNS_11char_traitsIcEENS_9allocatorIcEEE9push_backEc
Ltmp86:
	b	LBB7_14
LBB7_14:                                ;   in Loop: Header=BB7_2 Depth=1
	ldur	x0, [x29, #-16]
	bl	__ZNKSt3__112basic_stringIcNS_11char_traitsIcEENS_9allocatorIcEEE4sizeB6v15006Ev
	str	x0, [sp, #8]                    ; 8-byte Folded Spill
	ldur	x0, [x29, #-16]
	bl	__ZNKSt3__112basic_stringIcNS_11char_traitsIcEENS_9allocatorIcEEE8max_sizeB6v15006Ev
	mov	x8, x0
	ldr	x0, [sp, #8]                    ; 8-byte Folded Reload
	subs	x8, x0, x8
	cset	w8, ne
	tbnz	w8, #0, LBB7_16
	b	LBB7_15
LBB7_15:
	ldur	w8, [x29, #-24]
	orr	w8, w8, #0x4
	stur	w8, [x29, #-24]
	b	LBB7_17
LBB7_16:                                ;   in Loop: Header=BB7_2 Depth=1
	b	LBB7_2
LBB7_17:
	ldur	x8, [x29, #-40]
	subs	x8, x8, #0
	cset	w8, ne
	tbnz	w8, #0, LBB7_19
	b	LBB7_18
LBB7_18:
	ldur	w8, [x29, #-24]
	orr	w8, w8, #0x4
	stur	w8, [x29, #-24]
	b	LBB7_19
LBB7_19:
	b	LBB7_22
LBB7_20:
Ltmp92:
	mov	x8, x1
	str	x0, [sp, #56]
	str	w8, [sp, #52]
Ltmp93:
	bl	___cxa_end_catch
Ltmp94:
	b	LBB7_23
LBB7_21:
	bl	___cxa_end_catch
	b	LBB7_22
LBB7_22:
	ldur	x8, [x29, #-8]
	ldr	x9, [x8]
	ldur	x9, [x9, #-24]
	add	x0, x8, x9
	ldur	w1, [x29, #-24]
	bl	__ZNSt3__19basic_iosIcNS_11char_traitsIcEEE8setstateB6v15006Ej
	b	LBB7_24
LBB7_23:
	b	LBB7_25
LBB7_24:
	ldur	x0, [x29, #-8]
	ldp	x29, x30, [sp, #112]            ; 16-byte Folded Reload
	add	sp, sp, #128
	ret
LBB7_25:
	ldr	x0, [sp, #56]
	bl	__Unwind_Resume
LBB7_26:
Ltmp95:
	bl	___clang_call_terminate
LBB7_27:
	brk	#0x1
Lfunc_end3:
	.cfi_endproc
	.section	__TEXT,__gcc_except_tab
	.p2align	2
GCC_except_table7:
Lexception3:
	.byte	255                             ; @LPStart Encoding = omit
	.byte	155                             ; @TType Encoding = indirect pcrel sdata4
	.uleb128 Lttbase3-Lttbaseref3
Lttbaseref3:
	.byte	1                               ; Call site Encoding = uleb128
	.uleb128 Lcst_end3-Lcst_begin3
Lcst_begin3:
	.uleb128 Lfunc_begin3-Lfunc_begin3      ; >> Call Site 1 <<
	.uleb128 Ltmp81-Lfunc_begin3            ;   Call between Lfunc_begin3 and Ltmp81
	.byte	0                               ;     has no landing pad
	.byte	0                               ;   On action: cleanup
	.uleb128 Ltmp81-Lfunc_begin3            ; >> Call Site 2 <<
	.uleb128 Ltmp84-Ltmp81                  ;   Call between Ltmp81 and Ltmp84
	.uleb128 Ltmp87-Lfunc_begin3            ;     jumps to Ltmp87
	.byte	1                               ;   On action: 1
	.uleb128 Ltmp84-Lfunc_begin3            ; >> Call Site 3 <<
	.uleb128 Ltmp88-Ltmp84                  ;   Call between Ltmp84 and Ltmp88
	.byte	0                               ;     has no landing pad
	.byte	0                               ;   On action: cleanup
	.uleb128 Ltmp88-Lfunc_begin3            ; >> Call Site 4 <<
	.uleb128 Ltmp91-Ltmp88                  ;   Call between Ltmp88 and Ltmp91
	.uleb128 Ltmp92-Lfunc_begin3            ;     jumps to Ltmp92
	.byte	0                               ;   On action: cleanup
	.uleb128 Ltmp85-Lfunc_begin3            ; >> Call Site 5 <<
	.uleb128 Ltmp86-Ltmp85                  ;   Call between Ltmp85 and Ltmp86
	.uleb128 Ltmp87-Lfunc_begin3            ;     jumps to Ltmp87
	.byte	1                               ;   On action: 1
	.uleb128 Ltmp93-Lfunc_begin3            ; >> Call Site 6 <<
	.uleb128 Ltmp94-Ltmp93                  ;   Call between Ltmp93 and Ltmp94
	.uleb128 Ltmp95-Lfunc_begin3            ;     jumps to Ltmp95
	.byte	1                               ;   On action: 1
	.uleb128 Ltmp94-Lfunc_begin3            ; >> Call Site 7 <<
	.uleb128 Lfunc_end3-Ltmp94              ;   Call between Ltmp94 and Lfunc_end3
	.byte	0                               ;     has no landing pad
	.byte	0                               ;   On action: cleanup
Lcst_end3:
	.byte	1                               ; >> Action Record 1 <<
                                        ;   Catch TypeInfo 1
	.byte	0                               ;   No further actions
	.p2align	2
                                        ; >> Catch TypeInfos <<
	.long	0                               ; TypeInfo 1
Lttbase3:
	.p2align	2
                                        ; -- End function
	.section	__TEXT,__text,regular,pure_instructions
	.globl	__ZNSt3__1lsIcNS_11char_traitsIcEENS_9allocatorIcEEEERNS_13basic_ostreamIT_T0_EES9_RKNS_12basic_stringIS6_S7_T1_EE ; -- Begin function _ZNSt3__1lsIcNS_11char_traitsIcEENS_9allocatorIcEEEERNS_13basic_ostreamIT_T0_EES9_RKNS_12basic_stringIS6_S7_T1_EE
	.weak_definition	__ZNSt3__1lsIcNS_11char_traitsIcEENS_9allocatorIcEEEERNS_13basic_ostreamIT_T0_EES9_RKNS_12basic_stringIS6_S7_T1_EE
	.p2align	2
__ZNSt3__1lsIcNS_11char_traitsIcEENS_9allocatorIcEEEERNS_13basic_ostreamIT_T0_EES9_RKNS_12basic_stringIS6_S7_T1_EE: ; @_ZNSt3__1lsIcNS_11char_traitsIcEENS_9allocatorIcEEEERNS_13basic_ostreamIT_T0_EES9_RKNS_12basic_stringIS6_S7_T1_EE
	.cfi_startproc
; %bb.0:
	sub	sp, sp, #48
	.cfi_def_cfa_offset 48
	stp	x29, x30, [sp, #32]             ; 16-byte Folded Spill
	add	x29, sp, #32
	.cfi_def_cfa w29, 16
	.cfi_offset w30, -8
	.cfi_offset w29, -16
	stur	x0, [x29, #-8]
	str	x1, [sp, #16]
	ldur	x8, [x29, #-8]
	str	x8, [sp, #8]                    ; 8-byte Folded Spill
	ldr	x0, [sp, #16]
	bl	__ZNKSt3__112basic_stringIcNS_11char_traitsIcEENS_9allocatorIcEEE4dataB6v15006Ev
	str	x0, [sp]                        ; 8-byte Folded Spill
	ldr	x0, [sp, #16]
	bl	__ZNKSt3__112basic_stringIcNS_11char_traitsIcEENS_9allocatorIcEEE4sizeB6v15006Ev
	ldr	x1, [sp]                        ; 8-byte Folded Reload
	mov	x2, x0
	ldr	x0, [sp, #8]                    ; 8-byte Folded Reload
	bl	__ZNSt3__124__put_character_sequenceIcNS_11char_traitsIcEEEERNS_13basic_ostreamIT_T0_EES7_PKS4_m
	ldp	x29, x30, [sp, #32]             ; 16-byte Folded Reload
	add	sp, sp, #48
	ret
	.cfi_endproc
                                        ; -- End function
	.private_extern	__ZNSt3__113basic_fstreamIcNS_11char_traitsIcEEE5closeEv ; -- Begin function _ZNSt3__113basic_fstreamIcNS_11char_traitsIcEEE5closeEv
	.globl	__ZNSt3__113basic_fstreamIcNS_11char_traitsIcEEE5closeEv
	.weak_definition	__ZNSt3__113basic_fstreamIcNS_11char_traitsIcEEE5closeEv
	.p2align	2
__ZNSt3__113basic_fstreamIcNS_11char_traitsIcEEE5closeEv: ; @_ZNSt3__113basic_fstreamIcNS_11char_traitsIcEEE5closeEv
	.cfi_startproc
; %bb.0:
	sub	sp, sp, #32
	.cfi_def_cfa_offset 32
	stp	x29, x30, [sp, #16]             ; 16-byte Folded Spill
	add	x29, sp, #16
	.cfi_def_cfa w29, 16
	.cfi_offset w30, -8
	.cfi_offset w29, -16
	str	x0, [sp, #8]
	ldr	x8, [sp, #8]
	str	x8, [sp]                        ; 8-byte Folded Spill
	add	x0, x8, #24
	bl	__ZNSt3__113basic_filebufIcNS_11char_traitsIcEEE5closeEv
	subs	x8, x0, #0
	cset	w8, ne
	tbnz	w8, #0, LBB9_2
	b	LBB9_1
LBB9_1:
	ldr	x8, [sp]                        ; 8-byte Folded Reload
	ldr	x9, [x8]
	ldur	x9, [x9, #-24]
	add	x0, x8, x9
	mov	w1, #4
	bl	__ZNSt3__19basic_iosIcNS_11char_traitsIcEEE8setstateB6v15006Ej
	b	LBB9_2
LBB9_2:
	ldp	x29, x30, [sp, #16]             ; 16-byte Folded Reload
	add	sp, sp, #32
	ret
	.cfi_endproc
                                        ; -- End function
	.private_extern	___clang_call_terminate ; -- Begin function __clang_call_terminate
	.globl	___clang_call_terminate
	.weak_definition	___clang_call_terminate
	.p2align	2
___clang_call_terminate:                ; @__clang_call_terminate
; %bb.0:
	stp	x29, x30, [sp, #-16]!           ; 16-byte Folded Spill
	bl	___cxa_begin_catch
	bl	__ZSt9terminatev
                                        ; -- End function
	.globl	__ZNSt3__113basic_fstreamIcNS_11char_traitsIcEEED1Ev ; -- Begin function _ZNSt3__113basic_fstreamIcNS_11char_traitsIcEEED1Ev
	.weak_def_can_be_hidden	__ZNSt3__113basic_fstreamIcNS_11char_traitsIcEEED1Ev
	.p2align	2
__ZNSt3__113basic_fstreamIcNS_11char_traitsIcEEED1Ev: ; @_ZNSt3__113basic_fstreamIcNS_11char_traitsIcEEED1Ev
Lfunc_begin4:
	.cfi_startproc
	.cfi_personality 155, ___gxx_personality_v0
	.cfi_lsda 16, Lexception4
; %bb.0:
	sub	sp, sp, #48
	.cfi_def_cfa_offset 48
	stp	x29, x30, [sp, #32]             ; 16-byte Folded Spill
	add	x29, sp, #32
	.cfi_def_cfa w29, 16
	.cfi_offset w30, -8
	.cfi_offset w29, -16
	stur	x0, [x29, #-8]
	ldur	x0, [x29, #-8]
	str	x0, [sp]                        ; 8-byte Folded Spill
Ltmp96:
	adrp	x1, __ZTTNSt3__113basic_fstreamIcNS_11char_traitsIcEEEE@GOTPAGE
	ldr	x1, [x1, __ZTTNSt3__113basic_fstreamIcNS_11char_traitsIcEEEE@GOTPAGEOFF]
	bl	__ZNSt3__113basic_fstreamIcNS_11char_traitsIcEEED2Ev
Ltmp97:
	b	LBB11_1
LBB11_1:
	ldr	x8, [sp]                        ; 8-byte Folded Reload
	add	x0, x8, #432
	bl	__ZNSt3__19basic_iosIcNS_11char_traitsIcEEED2Ev
	ldr	x0, [sp]                        ; 8-byte Folded Reload
	ldp	x29, x30, [sp, #32]             ; 16-byte Folded Reload
	add	sp, sp, #48
	ret
LBB11_2:
Ltmp98:
	ldr	x8, [sp]                        ; 8-byte Folded Reload
	mov	x9, x1
	str	x0, [sp, #16]
	str	w9, [sp, #12]
	add	x0, x8, #432
Ltmp99:
	bl	__ZNSt3__19basic_iosIcNS_11char_traitsIcEEED2Ev
Ltmp100:
	b	LBB11_3
LBB11_3:
	b	LBB11_4
LBB11_4:
	ldr	x0, [sp, #16]
	bl	__Unwind_Resume
LBB11_5:
Ltmp101:
	bl	___clang_call_terminate
Lfunc_end4:
	.cfi_endproc
	.section	__TEXT,__gcc_except_tab
	.p2align	2
GCC_except_table11:
Lexception4:
	.byte	255                             ; @LPStart Encoding = omit
	.byte	155                             ; @TType Encoding = indirect pcrel sdata4
	.uleb128 Lttbase4-Lttbaseref4
Lttbaseref4:
	.byte	1                               ; Call site Encoding = uleb128
	.uleb128 Lcst_end4-Lcst_begin4
Lcst_begin4:
	.uleb128 Ltmp96-Lfunc_begin4            ; >> Call Site 1 <<
	.uleb128 Ltmp97-Ltmp96                  ;   Call between Ltmp96 and Ltmp97
	.uleb128 Ltmp98-Lfunc_begin4            ;     jumps to Ltmp98
	.byte	0                               ;   On action: cleanup
	.uleb128 Ltmp97-Lfunc_begin4            ; >> Call Site 2 <<
	.uleb128 Ltmp99-Ltmp97                  ;   Call between Ltmp97 and Ltmp99
	.byte	0                               ;     has no landing pad
	.byte	0                               ;   On action: cleanup
	.uleb128 Ltmp99-Lfunc_begin4            ; >> Call Site 3 <<
	.uleb128 Ltmp100-Ltmp99                 ;   Call between Ltmp99 and Ltmp100
	.uleb128 Ltmp101-Lfunc_begin4           ;     jumps to Ltmp101
	.byte	1                               ;   On action: 1
	.uleb128 Ltmp100-Lfunc_begin4           ; >> Call Site 4 <<
	.uleb128 Lfunc_end4-Ltmp100             ;   Call between Ltmp100 and Lfunc_end4
	.byte	0                               ;     has no landing pad
	.byte	0                               ;   On action: cleanup
Lcst_end4:
	.byte	1                               ; >> Action Record 1 <<
                                        ;   Catch TypeInfo 1
	.byte	0                               ;   No further actions
	.p2align	2
                                        ; >> Catch TypeInfos <<
	.long	0                               ; TypeInfo 1
Lttbase4:
	.p2align	2
                                        ; -- End function
	.section	__TEXT,__text,regular,pure_instructions
	.globl	__ZNSt3__113basic_fstreamIcNS_11char_traitsIcEEED2Ev ; -- Begin function _ZNSt3__113basic_fstreamIcNS_11char_traitsIcEEED2Ev
	.weak_def_can_be_hidden	__ZNSt3__113basic_fstreamIcNS_11char_traitsIcEEED2Ev
	.p2align	2
__ZNSt3__113basic_fstreamIcNS_11char_traitsIcEEED2Ev: ; @_ZNSt3__113basic_fstreamIcNS_11char_traitsIcEEED2Ev
Lfunc_begin5:
	.cfi_startproc
	.cfi_personality 155, ___gxx_personality_v0
	.cfi_lsda 16, Lexception5
; %bb.0:
	sub	sp, sp, #64
	.cfi_def_cfa_offset 64
	stp	x29, x30, [sp, #48]             ; 16-byte Folded Spill
	add	x29, sp, #48
	.cfi_def_cfa w29, 16
	.cfi_offset w30, -8
	.cfi_offset w29, -16
	stur	x0, [x29, #-8]
	stur	x1, [x29, #-16]
	ldur	x8, [x29, #-8]
	str	x8, [sp]                        ; 8-byte Folded Spill
	ldur	x9, [x29, #-16]
	str	x9, [sp, #8]                    ; 8-byte Folded Spill
	ldr	x10, [x9]
	str	x10, [x8]
	ldr	x10, [x9, #64]
	ldr	x11, [x8]
	ldur	x11, [x11, #-24]
	str	x10, [x8, x11]
	ldr	x9, [x9, #72]
	str	x9, [x8, #16]
Ltmp102:
	add	x0, x8, #24
	bl	__ZNSt3__113basic_filebufIcNS_11char_traitsIcEEED1Ev
Ltmp103:
	b	LBB12_1
LBB12_1:
	ldr	x0, [sp]                        ; 8-byte Folded Reload
	ldr	x8, [sp, #8]                    ; 8-byte Folded Reload
	add	x1, x8, #8
	bl	__ZNSt3__114basic_iostreamIcNS_11char_traitsIcEEED2Ev
	ldr	x0, [sp]                        ; 8-byte Folded Reload
	ldp	x29, x30, [sp, #48]             ; 16-byte Folded Reload
	add	sp, sp, #64
	ret
LBB12_2:
Ltmp104:
	ldr	x8, [sp, #8]                    ; 8-byte Folded Reload
	mov	x10, x0
	ldr	x0, [sp]                        ; 8-byte Folded Reload
	mov	x9, x1
	str	x10, [sp, #24]
	str	w9, [sp, #20]
	add	x1, x8, #8
Ltmp105:
	bl	__ZNSt3__114basic_iostreamIcNS_11char_traitsIcEEED2Ev
Ltmp106:
	b	LBB12_3
LBB12_3:
	b	LBB12_4
LBB12_4:
	ldr	x0, [sp, #24]
	bl	__Unwind_Resume
LBB12_5:
Ltmp107:
	bl	___clang_call_terminate
Lfunc_end5:
	.cfi_endproc
	.section	__TEXT,__gcc_except_tab
	.p2align	2
GCC_except_table12:
Lexception5:
	.byte	255                             ; @LPStart Encoding = omit
	.byte	155                             ; @TType Encoding = indirect pcrel sdata4
	.uleb128 Lttbase5-Lttbaseref5
Lttbaseref5:
	.byte	1                               ; Call site Encoding = uleb128
	.uleb128 Lcst_end5-Lcst_begin5
Lcst_begin5:
	.uleb128 Ltmp102-Lfunc_begin5           ; >> Call Site 1 <<
	.uleb128 Ltmp103-Ltmp102                ;   Call between Ltmp102 and Ltmp103
	.uleb128 Ltmp104-Lfunc_begin5           ;     jumps to Ltmp104
	.byte	0                               ;   On action: cleanup
	.uleb128 Ltmp103-Lfunc_begin5           ; >> Call Site 2 <<
	.uleb128 Ltmp105-Ltmp103                ;   Call between Ltmp103 and Ltmp105
	.byte	0                               ;     has no landing pad
	.byte	0                               ;   On action: cleanup
	.uleb128 Ltmp105-Lfunc_begin5           ; >> Call Site 3 <<
	.uleb128 Ltmp106-Ltmp105                ;   Call between Ltmp105 and Ltmp106
	.uleb128 Ltmp107-Lfunc_begin5           ;     jumps to Ltmp107
	.byte	1                               ;   On action: 1
	.uleb128 Ltmp106-Lfunc_begin5           ; >> Call Site 4 <<
	.uleb128 Lfunc_end5-Ltmp106             ;   Call between Ltmp106 and Lfunc_end5
	.byte	0                               ;     has no landing pad
	.byte	0                               ;   On action: cleanup
Lcst_end5:
	.byte	1                               ; >> Action Record 1 <<
                                        ;   Catch TypeInfo 1
	.byte	0                               ;   No further actions
	.p2align	2
                                        ; >> Catch TypeInfos <<
	.long	0                               ; TypeInfo 1
Lttbase5:
	.p2align	2
                                        ; -- End function
	.section	__TEXT,__text,regular,pure_instructions
	.globl	__ZThn16_NSt3__113basic_fstreamIcNS_11char_traitsIcEEED1Ev ; -- Begin function _ZThn16_NSt3__113basic_fstreamIcNS_11char_traitsIcEEED1Ev
	.weak_def_can_be_hidden	__ZThn16_NSt3__113basic_fstreamIcNS_11char_traitsIcEEED1Ev
	.p2align	2
__ZThn16_NSt3__113basic_fstreamIcNS_11char_traitsIcEEED1Ev: ; @_ZThn16_NSt3__113basic_fstreamIcNS_11char_traitsIcEEED1Ev
	.cfi_startproc
; %bb.0:
	sub	sp, sp, #16
	.cfi_def_cfa_offset 16
	str	x0, [sp]
	ldr	x8, [sp]
	str	x8, [sp, #8]
	subs	x0, x8, #16
	add	sp, sp, #16
	b	__ZNSt3__113basic_fstreamIcNS_11char_traitsIcEEED1Ev
	.cfi_endproc
                                        ; -- End function
	.globl	__ZTv0_n24_NSt3__113basic_fstreamIcNS_11char_traitsIcEEED1Ev ; -- Begin function _ZTv0_n24_NSt3__113basic_fstreamIcNS_11char_traitsIcEEED1Ev
	.weak_def_can_be_hidden	__ZTv0_n24_NSt3__113basic_fstreamIcNS_11char_traitsIcEEED1Ev
	.p2align	2
__ZTv0_n24_NSt3__113basic_fstreamIcNS_11char_traitsIcEEED1Ev: ; @_ZTv0_n24_NSt3__113basic_fstreamIcNS_11char_traitsIcEEED1Ev
	.cfi_startproc
; %bb.0:
	sub	sp, sp, #16
	.cfi_def_cfa_offset 16
	str	x0, [sp]
	ldr	x8, [sp]
	mov	x9, x8
	str	x9, [sp, #8]
	ldr	x9, [x8]
	ldur	x9, [x9, #-24]
	add	x0, x8, x9
	add	sp, sp, #16
	b	__ZNSt3__113basic_fstreamIcNS_11char_traitsIcEEED1Ev
	.cfi_endproc
                                        ; -- End function
	.globl	__ZNSt3__113basic_fstreamIcNS_11char_traitsIcEEED0Ev ; -- Begin function _ZNSt3__113basic_fstreamIcNS_11char_traitsIcEEED0Ev
	.weak_def_can_be_hidden	__ZNSt3__113basic_fstreamIcNS_11char_traitsIcEEED0Ev
	.p2align	2
__ZNSt3__113basic_fstreamIcNS_11char_traitsIcEEED0Ev: ; @_ZNSt3__113basic_fstreamIcNS_11char_traitsIcEEED0Ev
Lfunc_begin6:
	.cfi_startproc
	.cfi_personality 155, ___gxx_personality_v0
	.cfi_lsda 16, Lexception6
; %bb.0:
	sub	sp, sp, #48
	.cfi_def_cfa_offset 48
	stp	x29, x30, [sp, #32]             ; 16-byte Folded Spill
	add	x29, sp, #32
	.cfi_def_cfa w29, 16
	.cfi_offset w30, -8
	.cfi_offset w29, -16
	stur	x0, [x29, #-8]
	ldur	x0, [x29, #-8]
	str	x0, [sp]                        ; 8-byte Folded Spill
Ltmp110:
	bl	__ZNSt3__113basic_fstreamIcNS_11char_traitsIcEEED1Ev
Ltmp111:
	b	LBB15_1
LBB15_1:
	ldr	x0, [sp]                        ; 8-byte Folded Reload
	bl	__ZdlPv
	ldp	x29, x30, [sp, #32]             ; 16-byte Folded Reload
	add	sp, sp, #48
	ret
LBB15_2:
Ltmp112:
	mov	x9, x0
	ldr	x0, [sp]                        ; 8-byte Folded Reload
	mov	x8, x1
	str	x9, [sp, #16]
	str	w8, [sp, #12]
	bl	__ZdlPv
	b	LBB15_3
LBB15_3:
	ldr	x0, [sp, #16]
	bl	__Unwind_Resume
Lfunc_end6:
	.cfi_endproc
	.section	__TEXT,__gcc_except_tab
	.p2align	2
GCC_except_table15:
Lexception6:
	.byte	255                             ; @LPStart Encoding = omit
	.byte	255                             ; @TType Encoding = omit
	.byte	1                               ; Call site Encoding = uleb128
	.uleb128 Lcst_end6-Lcst_begin6
Lcst_begin6:
	.uleb128 Ltmp110-Lfunc_begin6           ; >> Call Site 1 <<
	.uleb128 Ltmp111-Ltmp110                ;   Call between Ltmp110 and Ltmp111
	.uleb128 Ltmp112-Lfunc_begin6           ;     jumps to Ltmp112
	.byte	0                               ;   On action: cleanup
	.uleb128 Ltmp111-Lfunc_begin6           ; >> Call Site 2 <<
	.uleb128 Lfunc_end6-Ltmp111             ;   Call between Ltmp111 and Lfunc_end6
	.byte	0                               ;     has no landing pad
	.byte	0                               ;   On action: cleanup
Lcst_end6:
	.p2align	2
                                        ; -- End function
	.section	__TEXT,__text,regular,pure_instructions
	.globl	__ZThn16_NSt3__113basic_fstreamIcNS_11char_traitsIcEEED0Ev ; -- Begin function _ZThn16_NSt3__113basic_fstreamIcNS_11char_traitsIcEEED0Ev
	.weak_def_can_be_hidden	__ZThn16_NSt3__113basic_fstreamIcNS_11char_traitsIcEEED0Ev
	.p2align	2
__ZThn16_NSt3__113basic_fstreamIcNS_11char_traitsIcEEED0Ev: ; @_ZThn16_NSt3__113basic_fstreamIcNS_11char_traitsIcEEED0Ev
	.cfi_startproc
; %bb.0:
	sub	sp, sp, #16
	.cfi_def_cfa_offset 16
	str	x0, [sp, #8]
	ldr	x8, [sp, #8]
	subs	x0, x8, #16
	add	sp, sp, #16
	b	__ZNSt3__113basic_fstreamIcNS_11char_traitsIcEEED0Ev
	.cfi_endproc
                                        ; -- End function
	.globl	__ZTv0_n24_NSt3__113basic_fstreamIcNS_11char_traitsIcEEED0Ev ; -- Begin function _ZTv0_n24_NSt3__113basic_fstreamIcNS_11char_traitsIcEEED0Ev
	.weak_def_can_be_hidden	__ZTv0_n24_NSt3__113basic_fstreamIcNS_11char_traitsIcEEED0Ev
	.p2align	2
__ZTv0_n24_NSt3__113basic_fstreamIcNS_11char_traitsIcEEED0Ev: ; @_ZTv0_n24_NSt3__113basic_fstreamIcNS_11char_traitsIcEEED0Ev
	.cfi_startproc
; %bb.0:
	sub	sp, sp, #16
	.cfi_def_cfa_offset 16
	str	x0, [sp, #8]
	ldr	x8, [sp, #8]
	ldr	x9, [x8]
	ldur	x9, [x9, #-24]
	add	x0, x8, x9
	add	sp, sp, #16
	b	__ZNSt3__113basic_fstreamIcNS_11char_traitsIcEEED0Ev
	.cfi_endproc
                                        ; -- End function
	.globl	__ZNSt3__124__put_character_sequenceIcNS_11char_traitsIcEEEERNS_13basic_ostreamIT_T0_EES7_PKS4_m ; -- Begin function _ZNSt3__124__put_character_sequenceIcNS_11char_traitsIcEEEERNS_13basic_ostreamIT_T0_EES7_PKS4_m
	.weak_definition	__ZNSt3__124__put_character_sequenceIcNS_11char_traitsIcEEEERNS_13basic_ostreamIT_T0_EES7_PKS4_m
	.p2align	2
__ZNSt3__124__put_character_sequenceIcNS_11char_traitsIcEEEERNS_13basic_ostreamIT_T0_EES7_PKS4_m: ; @_ZNSt3__124__put_character_sequenceIcNS_11char_traitsIcEEEERNS_13basic_ostreamIT_T0_EES7_PKS4_m
Lfunc_begin7:
	.cfi_startproc
	.cfi_personality 155, ___gxx_personality_v0
	.cfi_lsda 16, Lexception7
; %bb.0:
	sub	sp, sp, #160
	.cfi_def_cfa_offset 160
	stp	x29, x30, [sp, #144]            ; 16-byte Folded Spill
	add	x29, sp, #144
	.cfi_def_cfa w29, 16
	.cfi_offset w30, -8
	.cfi_offset w29, -16
	stur	x0, [x29, #-8]
	stur	x1, [x29, #-16]
	stur	x2, [x29, #-24]
	ldur	x1, [x29, #-8]
Ltmp115:
	sub	x0, x29, #40
	bl	__ZNSt3__113basic_ostreamIcNS_11char_traitsIcEEE6sentryC1ERS3_
Ltmp116:
	b	LBB18_1
LBB18_1:
Ltmp117:
	sub	x0, x29, #40
	bl	__ZNKSt3__113basic_ostreamIcNS_11char_traitsIcEEE6sentrycvbB6v15006Ev
	str	w0, [sp, #68]                   ; 4-byte Folded Spill
Ltmp118:
	b	LBB18_2
LBB18_2:
	ldr	w8, [sp, #68]                   ; 4-byte Folded Reload
	tbz	w8, #0, LBB18_15
	b	LBB18_3
LBB18_3:
	ldur	x1, [x29, #-8]
	add	x0, sp, #72
	bl	__ZNSt3__119ostreambuf_iteratorIcNS_11char_traitsIcEEEC1B6v15006ERNS_13basic_ostreamIcS2_EE
	ldur	x8, [x29, #-16]
	str	x8, [sp, #56]                   ; 8-byte Folded Spill
	ldur	x8, [x29, #-8]
	ldr	x9, [x8]
	ldur	x9, [x9, #-24]
	add	x0, x8, x9
Ltmp119:
	bl	__ZNKSt3__18ios_base5flagsB6v15006Ev
	str	w0, [sp, #64]                   ; 4-byte Folded Spill
Ltmp120:
	b	LBB18_4
LBB18_4:
	ldr	w8, [sp, #64]                   ; 4-byte Folded Reload
	mov	w9, #176
	and	w8, w8, w9
	subs	w8, w8, #32
	cset	w8, ne
	tbnz	w8, #0, LBB18_6
	b	LBB18_5
LBB18_5:
	ldur	x8, [x29, #-16]
	ldur	x9, [x29, #-24]
	add	x8, x8, x9
	str	x8, [sp, #48]                   ; 8-byte Folded Spill
	b	LBB18_7
LBB18_6:
	ldur	x8, [x29, #-16]
	str	x8, [sp, #48]                   ; 8-byte Folded Spill
	b	LBB18_7
LBB18_7:
	ldr	x8, [sp, #48]                   ; 8-byte Folded Reload
	str	x8, [sp, #16]                   ; 8-byte Folded Spill
	ldur	x8, [x29, #-16]
	ldur	x9, [x29, #-24]
	add	x8, x8, x9
	str	x8, [sp, #24]                   ; 8-byte Folded Spill
	ldur	x8, [x29, #-8]
	ldr	x9, [x8]
	ldur	x9, [x9, #-24]
	add	x8, x8, x9
	str	x8, [sp, #32]                   ; 8-byte Folded Spill
	ldur	x8, [x29, #-8]
	ldr	x9, [x8]
	ldur	x9, [x9, #-24]
	add	x0, x8, x9
Ltmp121:
	bl	__ZNKSt3__19basic_iosIcNS_11char_traitsIcEEE4fillB6v15006Ev
	str	w0, [sp, #44]                   ; 4-byte Folded Spill
Ltmp122:
	b	LBB18_8
LBB18_8:
	ldr	w8, [sp, #44]                   ; 4-byte Folded Reload
	ldr	x4, [sp, #32]                   ; 8-byte Folded Reload
	ldr	x3, [sp, #24]                   ; 8-byte Folded Reload
	ldr	x2, [sp, #16]                   ; 8-byte Folded Reload
	ldr	x1, [sp, #56]                   ; 8-byte Folded Reload
	ldr	x0, [sp, #72]
Ltmp123:
	sxtb	w5, w8
	bl	__ZNSt3__116__pad_and_outputIcNS_11char_traitsIcEEEENS_19ostreambuf_iteratorIT_T0_EES6_PKS4_S8_S8_RNS_8ios_baseES4_
	str	x0, [sp, #8]                    ; 8-byte Folded Spill
Ltmp124:
	b	LBB18_9
LBB18_9:
	ldr	x8, [sp, #8]                    ; 8-byte Folded Reload
	sub	x0, x29, #64
	stur	x8, [x29, #-64]
	bl	__ZNKSt3__119ostreambuf_iteratorIcNS_11char_traitsIcEEE6failedB6v15006Ev
	tbz	w0, #0, LBB18_14
	b	LBB18_10
LBB18_10:
	ldur	x8, [x29, #-8]
	ldr	x9, [x8]
	ldur	x9, [x9, #-24]
	add	x0, x8, x9
Ltmp125:
	mov	w1, #5
	bl	__ZNSt3__19basic_iosIcNS_11char_traitsIcEEE8setstateB6v15006Ej
Ltmp126:
	b	LBB18_11
LBB18_11:
	b	LBB18_14
LBB18_12:
Ltmp132:
	mov	x8, x1
	stur	x0, [x29, #-48]
	stur	w8, [x29, #-52]
	b	LBB18_18
LBB18_13:
Ltmp127:
	mov	x8, x1
	stur	x0, [x29, #-48]
	stur	w8, [x29, #-52]
Ltmp128:
	sub	x0, x29, #40
	bl	__ZNSt3__113basic_ostreamIcNS_11char_traitsIcEEE6sentryD1Ev
Ltmp129:
	b	LBB18_17
LBB18_14:
	b	LBB18_15
LBB18_15:
Ltmp130:
	sub	x0, x29, #40
	bl	__ZNSt3__113basic_ostreamIcNS_11char_traitsIcEEE6sentryD1Ev
Ltmp131:
	b	LBB18_16
LBB18_16:
	b	LBB18_20
LBB18_17:
	b	LBB18_18
LBB18_18:
	ldur	x0, [x29, #-48]
	bl	___cxa_begin_catch
	ldur	x8, [x29, #-8]
	ldr	x9, [x8]
	ldur	x9, [x9, #-24]
	add	x0, x8, x9
Ltmp133:
	bl	__ZNSt3__18ios_base33__set_badbit_and_consider_rethrowEv
Ltmp134:
	b	LBB18_19
LBB18_19:
	bl	___cxa_end_catch
	b	LBB18_20
LBB18_20:
	ldur	x0, [x29, #-8]
	ldp	x29, x30, [sp, #144]            ; 16-byte Folded Reload
	add	sp, sp, #160
	ret
LBB18_21:
Ltmp135:
	mov	x8, x1
	stur	x0, [x29, #-48]
	stur	w8, [x29, #-52]
Ltmp136:
	bl	___cxa_end_catch
Ltmp137:
	b	LBB18_22
LBB18_22:
	b	LBB18_23
LBB18_23:
	ldur	x0, [x29, #-48]
	bl	__Unwind_Resume
LBB18_24:
Ltmp138:
	bl	___clang_call_terminate
Lfunc_end7:
	.cfi_endproc
	.section	__TEXT,__gcc_except_tab
	.p2align	2
GCC_except_table18:
Lexception7:
	.byte	255                             ; @LPStart Encoding = omit
	.byte	155                             ; @TType Encoding = indirect pcrel sdata4
	.uleb128 Lttbase6-Lttbaseref6
Lttbaseref6:
	.byte	1                               ; Call site Encoding = uleb128
	.uleb128 Lcst_end7-Lcst_begin7
Lcst_begin7:
	.uleb128 Ltmp115-Lfunc_begin7           ; >> Call Site 1 <<
	.uleb128 Ltmp116-Ltmp115                ;   Call between Ltmp115 and Ltmp116
	.uleb128 Ltmp132-Lfunc_begin7           ;     jumps to Ltmp132
	.byte	1                               ;   On action: 1
	.uleb128 Ltmp117-Lfunc_begin7           ; >> Call Site 2 <<
	.uleb128 Ltmp126-Ltmp117                ;   Call between Ltmp117 and Ltmp126
	.uleb128 Ltmp127-Lfunc_begin7           ;     jumps to Ltmp127
	.byte	1                               ;   On action: 1
	.uleb128 Ltmp128-Lfunc_begin7           ; >> Call Site 3 <<
	.uleb128 Ltmp129-Ltmp128                ;   Call between Ltmp128 and Ltmp129
	.uleb128 Ltmp138-Lfunc_begin7           ;     jumps to Ltmp138
	.byte	1                               ;   On action: 1
	.uleb128 Ltmp130-Lfunc_begin7           ; >> Call Site 4 <<
	.uleb128 Ltmp131-Ltmp130                ;   Call between Ltmp130 and Ltmp131
	.uleb128 Ltmp132-Lfunc_begin7           ;     jumps to Ltmp132
	.byte	1                               ;   On action: 1
	.uleb128 Ltmp131-Lfunc_begin7           ; >> Call Site 5 <<
	.uleb128 Ltmp133-Ltmp131                ;   Call between Ltmp131 and Ltmp133
	.byte	0                               ;     has no landing pad
	.byte	0                               ;   On action: cleanup
	.uleb128 Ltmp133-Lfunc_begin7           ; >> Call Site 6 <<
	.uleb128 Ltmp134-Ltmp133                ;   Call between Ltmp133 and Ltmp134
	.uleb128 Ltmp135-Lfunc_begin7           ;     jumps to Ltmp135
	.byte	0                               ;   On action: cleanup
	.uleb128 Ltmp134-Lfunc_begin7           ; >> Call Site 7 <<
	.uleb128 Ltmp136-Ltmp134                ;   Call between Ltmp134 and Ltmp136
	.byte	0                               ;     has no landing pad
	.byte	0                               ;   On action: cleanup
	.uleb128 Ltmp136-Lfunc_begin7           ; >> Call Site 8 <<
	.uleb128 Ltmp137-Ltmp136                ;   Call between Ltmp136 and Ltmp137
	.uleb128 Ltmp138-Lfunc_begin7           ;     jumps to Ltmp138
	.byte	1                               ;   On action: 1
	.uleb128 Ltmp137-Lfunc_begin7           ; >> Call Site 9 <<
	.uleb128 Lfunc_end7-Ltmp137             ;   Call between Ltmp137 and Lfunc_end7
	.byte	0                               ;     has no landing pad
	.byte	0                               ;   On action: cleanup
Lcst_end7:
	.byte	1                               ; >> Action Record 1 <<
                                        ;   Catch TypeInfo 1
	.byte	0                               ;   No further actions
	.p2align	2
                                        ; >> Catch TypeInfos <<
	.long	0                               ; TypeInfo 1
Lttbase6:
	.p2align	2
                                        ; -- End function
	.section	__TEXT,__text,regular,pure_instructions
	.globl	__ZNSt3__111char_traitsIcE6lengthEPKc ; -- Begin function _ZNSt3__111char_traitsIcE6lengthEPKc
	.weak_definition	__ZNSt3__111char_traitsIcE6lengthEPKc
	.p2align	2
__ZNSt3__111char_traitsIcE6lengthEPKc:  ; @_ZNSt3__111char_traitsIcE6lengthEPKc
	.cfi_startproc
; %bb.0:
	sub	sp, sp, #32
	.cfi_def_cfa_offset 32
	stp	x29, x30, [sp, #16]             ; 16-byte Folded Spill
	add	x29, sp, #16
	.cfi_def_cfa w29, 16
	.cfi_offset w30, -8
	.cfi_offset w29, -16
	str	x0, [sp, #8]
	ldr	x0, [sp, #8]
	bl	_strlen
	ldp	x29, x30, [sp, #16]             ; 16-byte Folded Reload
	add	sp, sp, #32
	ret
	.cfi_endproc
                                        ; -- End function
	.private_extern	__ZNKSt3__113basic_ostreamIcNS_11char_traitsIcEEE6sentrycvbB6v15006Ev ; -- Begin function _ZNKSt3__113basic_ostreamIcNS_11char_traitsIcEEE6sentrycvbB6v15006Ev
	.globl	__ZNKSt3__113basic_ostreamIcNS_11char_traitsIcEEE6sentrycvbB6v15006Ev
	.weak_definition	__ZNKSt3__113basic_ostreamIcNS_11char_traitsIcEEE6sentrycvbB6v15006Ev
	.p2align	2
__ZNKSt3__113basic_ostreamIcNS_11char_traitsIcEEE6sentrycvbB6v15006Ev: ; @_ZNKSt3__113basic_ostreamIcNS_11char_traitsIcEEE6sentrycvbB6v15006Ev
	.cfi_startproc
; %bb.0:
	sub	sp, sp, #16
	.cfi_def_cfa_offset 16
	str	x0, [sp, #8]
	ldr	x8, [sp, #8]
	ldrb	w8, [x8]
	and	w0, w8, #0x1
	add	sp, sp, #16
	ret
	.cfi_endproc
                                        ; -- End function
	.private_extern	__ZNSt3__116__pad_and_outputIcNS_11char_traitsIcEEEENS_19ostreambuf_iteratorIT_T0_EES6_PKS4_S8_S8_RNS_8ios_baseES4_ ; -- Begin function _ZNSt3__116__pad_and_outputIcNS_11char_traitsIcEEEENS_19ostreambuf_iteratorIT_T0_EES6_PKS4_S8_S8_RNS_8ios_baseES4_
	.globl	__ZNSt3__116__pad_and_outputIcNS_11char_traitsIcEEEENS_19ostreambuf_iteratorIT_T0_EES6_PKS4_S8_S8_RNS_8ios_baseES4_
	.weak_definition	__ZNSt3__116__pad_and_outputIcNS_11char_traitsIcEEEENS_19ostreambuf_iteratorIT_T0_EES6_PKS4_S8_S8_RNS_8ios_baseES4_
	.p2align	2
__ZNSt3__116__pad_and_outputIcNS_11char_traitsIcEEEENS_19ostreambuf_iteratorIT_T0_EES6_PKS4_S8_S8_RNS_8ios_baseES4_: ; @_ZNSt3__116__pad_and_outputIcNS_11char_traitsIcEEEENS_19ostreambuf_iteratorIT_T0_EES6_PKS4_S8_S8_RNS_8ios_baseES4_
Lfunc_begin8:
	.cfi_startproc
	.cfi_personality 155, ___gxx_personality_v0
	.cfi_lsda 16, Lexception8
; %bb.0:
	sub	sp, sp, #160
	.cfi_def_cfa_offset 160
	stp	x29, x30, [sp, #144]            ; 16-byte Folded Spill
	add	x29, sp, #144
	.cfi_def_cfa w29, 16
	.cfi_offset w30, -8
	.cfi_offset w29, -16
	stur	x0, [x29, #-16]
	stur	x1, [x29, #-24]
	stur	x2, [x29, #-32]
	stur	x3, [x29, #-40]
	stur	x4, [x29, #-48]
	sturb	w5, [x29, #-49]
	ldur	x8, [x29, #-16]
	subs	x8, x8, #0
	cset	w8, ne
	tbnz	w8, #0, LBB21_2
	b	LBB21_1
LBB21_1:
	ldur	x8, [x29, #-16]
	stur	x8, [x29, #-8]
	b	LBB21_24
LBB21_2:
	ldur	x8, [x29, #-40]
	ldur	x9, [x29, #-24]
	subs	x8, x8, x9
	stur	x8, [x29, #-64]
	ldur	x0, [x29, #-48]
	bl	__ZNKSt3__18ios_base5widthB6v15006Ev
	str	x0, [sp, #72]
	ldr	x8, [sp, #72]
	ldur	x9, [x29, #-64]
	subs	x8, x8, x9
	cset	w8, le
	tbnz	w8, #0, LBB21_4
	b	LBB21_3
LBB21_3:
	ldur	x9, [x29, #-64]
	ldr	x8, [sp, #72]
	subs	x8, x8, x9
	str	x8, [sp, #72]
	b	LBB21_5
LBB21_4:
	str	xzr, [sp, #72]
	b	LBB21_5
LBB21_5:
	ldur	x8, [x29, #-32]
	ldur	x9, [x29, #-24]
	subs	x8, x8, x9
	str	x8, [sp, #64]
	ldr	x8, [sp, #64]
	subs	x8, x8, #0
	cset	w8, le
	tbnz	w8, #0, LBB21_9
	b	LBB21_6
LBB21_6:
	ldur	x0, [x29, #-16]
	ldur	x1, [x29, #-24]
	ldr	x2, [sp, #64]
	bl	__ZNSt3__115basic_streambufIcNS_11char_traitsIcEEE5sputnB6v15006EPKcl
	ldr	x8, [sp, #64]
	subs	x8, x0, x8
	cset	w8, eq
	tbnz	w8, #0, LBB21_8
	b	LBB21_7
LBB21_7:
                                        ; kill: def $x8 killed $xzr
	stur	xzr, [x29, #-16]
	ldur	x8, [x29, #-16]
	stur	x8, [x29, #-8]
	b	LBB21_24
LBB21_8:
	b	LBB21_9
LBB21_9:
	ldr	x8, [sp, #72]
	subs	x8, x8, #0
	cset	w8, le
	tbnz	w8, #0, LBB21_19
	b	LBB21_10
LBB21_10:
	ldr	x1, [sp, #72]
	ldursb	w2, [x29, #-49]
	add	x0, sp, #40
	str	x0, [sp]                        ; 8-byte Folded Spill
	bl	__ZNSt3__112basic_stringIcNS_11char_traitsIcEENS_9allocatorIcEEEC1B6v15006Emc
	ldr	x0, [sp]                        ; 8-byte Folded Reload
	ldur	x8, [x29, #-16]
	str	x8, [sp, #8]                    ; 8-byte Folded Spill
	bl	__ZNKSt3__112basic_stringIcNS_11char_traitsIcEENS_9allocatorIcEEE4dataB6v15006Ev
	mov	x1, x0
	ldr	x0, [sp, #8]                    ; 8-byte Folded Reload
	ldr	x2, [sp, #72]
Ltmp140:
	bl	__ZNSt3__115basic_streambufIcNS_11char_traitsIcEEE5sputnB6v15006EPKcl
	str	x0, [sp, #16]                   ; 8-byte Folded Spill
Ltmp141:
	b	LBB21_11
LBB21_11:
	ldr	x8, [sp, #16]                   ; 8-byte Folded Reload
	ldr	x9, [sp, #72]
	subs	x8, x8, x9
	cset	w8, eq
	tbnz	w8, #0, LBB21_14
	b	LBB21_12
LBB21_12:
                                        ; kill: def $x8 killed $xzr
	stur	xzr, [x29, #-16]
	ldur	x8, [x29, #-16]
	stur	x8, [x29, #-8]
	mov	w8, #1
	str	w8, [sp, #24]
	b	LBB21_15
LBB21_13:
Ltmp142:
	mov	x8, x1
	str	x0, [sp, #32]
	str	w8, [sp, #28]
Ltmp143:
	add	x0, sp, #40
	bl	__ZNSt3__112basic_stringIcNS_11char_traitsIcEENS_9allocatorIcEEED1Ev
Ltmp144:
	b	LBB21_18
LBB21_14:
	str	wzr, [sp, #24]
	b	LBB21_15
LBB21_15:
	add	x0, sp, #40
	bl	__ZNSt3__112basic_stringIcNS_11char_traitsIcEENS_9allocatorIcEEED1Ev
	ldr	w8, [sp, #24]
	subs	w8, w8, #0
	cset	w8, eq
	tbnz	w8, #0, LBB21_17
	b	LBB21_16
LBB21_16:
	b	LBB21_24
LBB21_17:
	b	LBB21_19
LBB21_18:
	b	LBB21_25
LBB21_19:
	ldur	x8, [x29, #-40]
	ldur	x9, [x29, #-32]
	subs	x8, x8, x9
	str	x8, [sp, #64]
	ldr	x8, [sp, #64]
	subs	x8, x8, #0
	cset	w8, le
	tbnz	w8, #0, LBB21_23
	b	LBB21_20
LBB21_20:
	ldur	x0, [x29, #-16]
	ldur	x1, [x29, #-32]
	ldr	x2, [sp, #64]
	bl	__ZNSt3__115basic_streambufIcNS_11char_traitsIcEEE5sputnB6v15006EPKcl
	ldr	x8, [sp, #64]
	subs	x8, x0, x8
	cset	w8, eq
	tbnz	w8, #0, LBB21_22
	b	LBB21_21
LBB21_21:
                                        ; kill: def $x8 killed $xzr
	stur	xzr, [x29, #-16]
	ldur	x8, [x29, #-16]
	stur	x8, [x29, #-8]
	b	LBB21_24
LBB21_22:
	b	LBB21_23
LBB21_23:
	ldur	x0, [x29, #-48]
	mov	x1, #0
	bl	__ZNSt3__18ios_base5widthB6v15006El
	ldur	x8, [x29, #-16]
	stur	x8, [x29, #-8]
	b	LBB21_24
LBB21_24:
	ldur	x0, [x29, #-8]
	ldp	x29, x30, [sp, #144]            ; 16-byte Folded Reload
	add	sp, sp, #160
	ret
LBB21_25:
	ldr	x0, [sp, #32]
	bl	__Unwind_Resume
LBB21_26:
Ltmp145:
	bl	___clang_call_terminate
; %bb.27:
Lfunc_end8:
	.cfi_endproc
	.section	__TEXT,__gcc_except_tab
	.p2align	2
GCC_except_table21:
Lexception8:
	.byte	255                             ; @LPStart Encoding = omit
	.byte	155                             ; @TType Encoding = indirect pcrel sdata4
	.uleb128 Lttbase7-Lttbaseref7
Lttbaseref7:
	.byte	1                               ; Call site Encoding = uleb128
	.uleb128 Lcst_end8-Lcst_begin8
Lcst_begin8:
	.uleb128 Lfunc_begin8-Lfunc_begin8      ; >> Call Site 1 <<
	.uleb128 Ltmp140-Lfunc_begin8           ;   Call between Lfunc_begin8 and Ltmp140
	.byte	0                               ;     has no landing pad
	.byte	0                               ;   On action: cleanup
	.uleb128 Ltmp140-Lfunc_begin8           ; >> Call Site 2 <<
	.uleb128 Ltmp141-Ltmp140                ;   Call between Ltmp140 and Ltmp141
	.uleb128 Ltmp142-Lfunc_begin8           ;     jumps to Ltmp142
	.byte	0                               ;   On action: cleanup
	.uleb128 Ltmp143-Lfunc_begin8           ; >> Call Site 3 <<
	.uleb128 Ltmp144-Ltmp143                ;   Call between Ltmp143 and Ltmp144
	.uleb128 Ltmp145-Lfunc_begin8           ;     jumps to Ltmp145
	.byte	1                               ;   On action: 1
	.uleb128 Ltmp144-Lfunc_begin8           ; >> Call Site 4 <<
	.uleb128 Lfunc_end8-Ltmp144             ;   Call between Ltmp144 and Lfunc_end8
	.byte	0                               ;     has no landing pad
	.byte	0                               ;   On action: cleanup
Lcst_end8:
	.byte	1                               ; >> Action Record 1 <<
                                        ;   Catch TypeInfo 1
	.byte	0                               ;   No further actions
	.p2align	2
                                        ; >> Catch TypeInfos <<
	.long	0                               ; TypeInfo 1
Lttbase7:
	.p2align	2
                                        ; -- End function
	.section	__TEXT,__text,regular,pure_instructions
	.private_extern	__ZNSt3__119ostreambuf_iteratorIcNS_11char_traitsIcEEEC1B6v15006ERNS_13basic_ostreamIcS2_EE ; -- Begin function _ZNSt3__119ostreambuf_iteratorIcNS_11char_traitsIcEEEC1B6v15006ERNS_13basic_ostreamIcS2_EE
	.globl	__ZNSt3__119ostreambuf_iteratorIcNS_11char_traitsIcEEEC1B6v15006ERNS_13basic_ostreamIcS2_EE
	.weak_def_can_be_hidden	__ZNSt3__119ostreambuf_iteratorIcNS_11char_traitsIcEEEC1B6v15006ERNS_13basic_ostreamIcS2_EE
	.p2align	2
__ZNSt3__119ostreambuf_iteratorIcNS_11char_traitsIcEEEC1B6v15006ERNS_13basic_ostreamIcS2_EE: ; @_ZNSt3__119ostreambuf_iteratorIcNS_11char_traitsIcEEEC1B6v15006ERNS_13basic_ostreamIcS2_EE
	.cfi_startproc
; %bb.0:
	sub	sp, sp, #48
	.cfi_def_cfa_offset 48
	stp	x29, x30, [sp, #32]             ; 16-byte Folded Spill
	add	x29, sp, #32
	.cfi_def_cfa w29, 16
	.cfi_offset w30, -8
	.cfi_offset w29, -16
	stur	x0, [x29, #-8]
	str	x1, [sp, #16]
	ldur	x0, [x29, #-8]
	str	x0, [sp, #8]                    ; 8-byte Folded Spill
	ldr	x1, [sp, #16]
	bl	__ZNSt3__119ostreambuf_iteratorIcNS_11char_traitsIcEEEC2B6v15006ERNS_13basic_ostreamIcS2_EE
	ldr	x0, [sp, #8]                    ; 8-byte Folded Reload
	ldp	x29, x30, [sp, #32]             ; 16-byte Folded Reload
	add	sp, sp, #48
	ret
	.cfi_endproc
                                        ; -- End function
	.private_extern	__ZNKSt3__18ios_base5flagsB6v15006Ev ; -- Begin function _ZNKSt3__18ios_base5flagsB6v15006Ev
	.globl	__ZNKSt3__18ios_base5flagsB6v15006Ev
	.weak_definition	__ZNKSt3__18ios_base5flagsB6v15006Ev
	.p2align	2
__ZNKSt3__18ios_base5flagsB6v15006Ev:   ; @_ZNKSt3__18ios_base5flagsB6v15006Ev
	.cfi_startproc
; %bb.0:
	sub	sp, sp, #16
	.cfi_def_cfa_offset 16
	str	x0, [sp, #8]
	ldr	x8, [sp, #8]
	ldr	w0, [x8, #8]
	add	sp, sp, #16
	ret
	.cfi_endproc
                                        ; -- End function
	.private_extern	__ZNKSt3__19basic_iosIcNS_11char_traitsIcEEE4fillB6v15006Ev ; -- Begin function _ZNKSt3__19basic_iosIcNS_11char_traitsIcEEE4fillB6v15006Ev
	.globl	__ZNKSt3__19basic_iosIcNS_11char_traitsIcEEE4fillB6v15006Ev
	.weak_definition	__ZNKSt3__19basic_iosIcNS_11char_traitsIcEEE4fillB6v15006Ev
	.p2align	2
__ZNKSt3__19basic_iosIcNS_11char_traitsIcEEE4fillB6v15006Ev: ; @_ZNKSt3__19basic_iosIcNS_11char_traitsIcEEE4fillB6v15006Ev
	.cfi_startproc
; %bb.0:
	sub	sp, sp, #32
	.cfi_def_cfa_offset 32
	stp	x29, x30, [sp, #16]             ; 16-byte Folded Spill
	add	x29, sp, #16
	.cfi_def_cfa w29, 16
	.cfi_offset w30, -8
	.cfi_offset w29, -16
	str	x0, [sp, #8]
	ldr	x8, [sp, #8]
	str	x8, [sp]                        ; 8-byte Folded Spill
	bl	__ZNSt3__111char_traitsIcE3eofEv
	ldr	x8, [sp]                        ; 8-byte Folded Reload
	ldr	w1, [x8, #144]
	bl	__ZNSt3__111char_traitsIcE11eq_int_typeEii
	tbz	w0, #0, LBB24_2
	b	LBB24_1
LBB24_1:
	ldr	x0, [sp]                        ; 8-byte Folded Reload
	mov	w1, #32
	bl	__ZNKSt3__19basic_iosIcNS_11char_traitsIcEEE5widenB6v15006Ec
	ldr	x9, [sp]                        ; 8-byte Folded Reload
	sxtb	w8, w0
	str	w8, [x9, #144]
	b	LBB24_2
LBB24_2:
	ldr	x8, [sp]                        ; 8-byte Folded Reload
	ldr	w8, [x8, #144]
	sxtb	w0, w8
	ldp	x29, x30, [sp, #16]             ; 16-byte Folded Reload
	add	sp, sp, #32
	ret
	.cfi_endproc
                                        ; -- End function
	.private_extern	__ZNKSt3__119ostreambuf_iteratorIcNS_11char_traitsIcEEE6failedB6v15006Ev ; -- Begin function _ZNKSt3__119ostreambuf_iteratorIcNS_11char_traitsIcEEE6failedB6v15006Ev
	.globl	__ZNKSt3__119ostreambuf_iteratorIcNS_11char_traitsIcEEE6failedB6v15006Ev
	.weak_definition	__ZNKSt3__119ostreambuf_iteratorIcNS_11char_traitsIcEEE6failedB6v15006Ev
	.p2align	2
__ZNKSt3__119ostreambuf_iteratorIcNS_11char_traitsIcEEE6failedB6v15006Ev: ; @_ZNKSt3__119ostreambuf_iteratorIcNS_11char_traitsIcEEE6failedB6v15006Ev
	.cfi_startproc
; %bb.0:
	sub	sp, sp, #16
	.cfi_def_cfa_offset 16
	str	x0, [sp, #8]
	ldr	x8, [sp, #8]
	ldr	x8, [x8]
	subs	x8, x8, #0
	cset	w8, eq
	and	w0, w8, #0x1
	add	sp, sp, #16
	ret
	.cfi_endproc
                                        ; -- End function
	.private_extern	__ZNSt3__19basic_iosIcNS_11char_traitsIcEEE8setstateB6v15006Ej ; -- Begin function _ZNSt3__19basic_iosIcNS_11char_traitsIcEEE8setstateB6v15006Ej
	.globl	__ZNSt3__19basic_iosIcNS_11char_traitsIcEEE8setstateB6v15006Ej
	.weak_definition	__ZNSt3__19basic_iosIcNS_11char_traitsIcEEE8setstateB6v15006Ej
	.p2align	2
__ZNSt3__19basic_iosIcNS_11char_traitsIcEEE8setstateB6v15006Ej: ; @_ZNSt3__19basic_iosIcNS_11char_traitsIcEEE8setstateB6v15006Ej
	.cfi_startproc
; %bb.0:
	sub	sp, sp, #32
	.cfi_def_cfa_offset 32
	stp	x29, x30, [sp, #16]             ; 16-byte Folded Spill
	add	x29, sp, #16
	.cfi_def_cfa w29, 16
	.cfi_offset w30, -8
	.cfi_offset w29, -16
	str	x0, [sp, #8]
	str	w1, [sp, #4]
	ldr	x0, [sp, #8]
	ldr	w1, [sp, #4]
	bl	__ZNSt3__18ios_base8setstateB6v15006Ej
	ldp	x29, x30, [sp, #16]             ; 16-byte Folded Reload
	add	sp, sp, #32
	ret
	.cfi_endproc
                                        ; -- End function
	.private_extern	__ZNKSt3__18ios_base5widthB6v15006Ev ; -- Begin function _ZNKSt3__18ios_base5widthB6v15006Ev
	.globl	__ZNKSt3__18ios_base5widthB6v15006Ev
	.weak_definition	__ZNKSt3__18ios_base5widthB6v15006Ev
	.p2align	2
__ZNKSt3__18ios_base5widthB6v15006Ev:   ; @_ZNKSt3__18ios_base5widthB6v15006Ev
	.cfi_startproc
; %bb.0:
	sub	sp, sp, #16
	.cfi_def_cfa_offset 16
	str	x0, [sp, #8]
	ldr	x8, [sp, #8]
	ldr	x0, [x8, #24]
	add	sp, sp, #16
	ret
	.cfi_endproc
                                        ; -- End function
	.private_extern	__ZNSt3__115basic_streambufIcNS_11char_traitsIcEEE5sputnB6v15006EPKcl ; -- Begin function _ZNSt3__115basic_streambufIcNS_11char_traitsIcEEE5sputnB6v15006EPKcl
	.globl	__ZNSt3__115basic_streambufIcNS_11char_traitsIcEEE5sputnB6v15006EPKcl
	.weak_definition	__ZNSt3__115basic_streambufIcNS_11char_traitsIcEEE5sputnB6v15006EPKcl
	.p2align	2
__ZNSt3__115basic_streambufIcNS_11char_traitsIcEEE5sputnB6v15006EPKcl: ; @_ZNSt3__115basic_streambufIcNS_11char_traitsIcEEE5sputnB6v15006EPKcl
	.cfi_startproc
; %bb.0:
	sub	sp, sp, #48
	.cfi_def_cfa_offset 48
	stp	x29, x30, [sp, #32]             ; 16-byte Folded Spill
	add	x29, sp, #32
	.cfi_def_cfa w29, 16
	.cfi_offset w30, -8
	.cfi_offset w29, -16
	stur	x0, [x29, #-8]
	str	x1, [sp, #16]
	str	x2, [sp, #8]
	ldur	x0, [x29, #-8]
	ldr	x1, [sp, #16]
	ldr	x2, [sp, #8]
	ldr	x8, [x0]
	ldr	x8, [x8, #96]
	blr	x8
	ldp	x29, x30, [sp, #32]             ; 16-byte Folded Reload
	add	sp, sp, #48
	ret
	.cfi_endproc
                                        ; -- End function
	.private_extern	__ZNSt3__112basic_stringIcNS_11char_traitsIcEENS_9allocatorIcEEEC1B6v15006Emc ; -- Begin function _ZNSt3__112basic_stringIcNS_11char_traitsIcEENS_9allocatorIcEEEC1B6v15006Emc
	.globl	__ZNSt3__112basic_stringIcNS_11char_traitsIcEENS_9allocatorIcEEEC1B6v15006Emc
	.weak_def_can_be_hidden	__ZNSt3__112basic_stringIcNS_11char_traitsIcEENS_9allocatorIcEEEC1B6v15006Emc
	.p2align	2
__ZNSt3__112basic_stringIcNS_11char_traitsIcEENS_9allocatorIcEEEC1B6v15006Emc: ; @_ZNSt3__112basic_stringIcNS_11char_traitsIcEENS_9allocatorIcEEEC1B6v15006Emc
	.cfi_startproc
; %bb.0:
	sub	sp, sp, #48
	.cfi_def_cfa_offset 48
	stp	x29, x30, [sp, #32]             ; 16-byte Folded Spill
	add	x29, sp, #32
	.cfi_def_cfa w29, 16
	.cfi_offset w30, -8
	.cfi_offset w29, -16
	stur	x0, [x29, #-8]
	str	x1, [sp, #16]
	strb	w2, [sp, #15]
	ldur	x0, [x29, #-8]
	str	x0, [sp]                        ; 8-byte Folded Spill
	ldr	x1, [sp, #16]
	ldrsb	w2, [sp, #15]
	bl	__ZNSt3__112basic_stringIcNS_11char_traitsIcEENS_9allocatorIcEEEC2B6v15006Emc
	ldr	x0, [sp]                        ; 8-byte Folded Reload
	ldp	x29, x30, [sp, #32]             ; 16-byte Folded Reload
	add	sp, sp, #48
	ret
	.cfi_endproc
                                        ; -- End function
	.private_extern	__ZNKSt3__112basic_stringIcNS_11char_traitsIcEENS_9allocatorIcEEE4dataB6v15006Ev ; -- Begin function _ZNKSt3__112basic_stringIcNS_11char_traitsIcEENS_9allocatorIcEEE4dataB6v15006Ev
	.globl	__ZNKSt3__112basic_stringIcNS_11char_traitsIcEENS_9allocatorIcEEE4dataB6v15006Ev
	.weak_definition	__ZNKSt3__112basic_stringIcNS_11char_traitsIcEENS_9allocatorIcEEE4dataB6v15006Ev
	.p2align	2
__ZNKSt3__112basic_stringIcNS_11char_traitsIcEENS_9allocatorIcEEE4dataB6v15006Ev: ; @_ZNKSt3__112basic_stringIcNS_11char_traitsIcEENS_9allocatorIcEEE4dataB6v15006Ev
	.cfi_startproc
; %bb.0:
	sub	sp, sp, #32
	.cfi_def_cfa_offset 32
	stp	x29, x30, [sp, #16]             ; 16-byte Folded Spill
	add	x29, sp, #16
	.cfi_def_cfa w29, 16
	.cfi_offset w30, -8
	.cfi_offset w29, -16
	str	x0, [sp, #8]
	ldr	x0, [sp, #8]
	bl	__ZNKSt3__112basic_stringIcNS_11char_traitsIcEENS_9allocatorIcEEE13__get_pointerB6v15006Ev
	bl	__ZNSt3__112__to_addressB6v15006IKcEEPT_S3_
	ldp	x29, x30, [sp, #16]             ; 16-byte Folded Reload
	add	sp, sp, #32
	ret
	.cfi_endproc
                                        ; -- End function
	.private_extern	__ZNSt3__18ios_base5widthB6v15006El ; -- Begin function _ZNSt3__18ios_base5widthB6v15006El
	.globl	__ZNSt3__18ios_base5widthB6v15006El
	.weak_definition	__ZNSt3__18ios_base5widthB6v15006El
	.p2align	2
__ZNSt3__18ios_base5widthB6v15006El:    ; @_ZNSt3__18ios_base5widthB6v15006El
	.cfi_startproc
; %bb.0:
	sub	sp, sp, #32
	.cfi_def_cfa_offset 32
	str	x0, [sp, #24]
	str	x1, [sp, #16]
	ldr	x9, [sp, #24]
	ldr	x8, [x9, #24]
	str	x8, [sp, #8]
	ldr	x8, [sp, #16]
	str	x8, [x9, #24]
	ldr	x0, [sp, #8]
	add	sp, sp, #32
	ret
	.cfi_endproc
                                        ; -- End function
	.private_extern	__ZNSt3__112basic_stringIcNS_11char_traitsIcEENS_9allocatorIcEEEC2B6v15006Emc ; -- Begin function _ZNSt3__112basic_stringIcNS_11char_traitsIcEENS_9allocatorIcEEEC2B6v15006Emc
	.globl	__ZNSt3__112basic_stringIcNS_11char_traitsIcEENS_9allocatorIcEEEC2B6v15006Emc
	.weak_def_can_be_hidden	__ZNSt3__112basic_stringIcNS_11char_traitsIcEENS_9allocatorIcEEEC2B6v15006Emc
	.p2align	2
__ZNSt3__112basic_stringIcNS_11char_traitsIcEENS_9allocatorIcEEEC2B6v15006Emc: ; @_ZNSt3__112basic_stringIcNS_11char_traitsIcEENS_9allocatorIcEEEC2B6v15006Emc
	.cfi_startproc
; %bb.0:
	sub	sp, sp, #48
	.cfi_def_cfa_offset 48
	stp	x29, x30, [sp, #32]             ; 16-byte Folded Spill
	add	x29, sp, #32
	.cfi_def_cfa w29, 16
	.cfi_offset w30, -8
	.cfi_offset w29, -16
	stur	x0, [x29, #-8]
	str	x1, [sp, #16]
	strb	w2, [sp, #15]
	ldur	x0, [x29, #-8]
	str	x0, [sp]                        ; 8-byte Folded Spill
	add	x1, sp, #14
	add	x2, sp, #13
	bl	__ZNSt3__117__compressed_pairINS_12basic_stringIcNS_11char_traitsIcEENS_9allocatorIcEEE5__repES5_EC1B6v15006INS_18__default_init_tagESA_EEOT_OT0_
	ldr	x0, [sp]                        ; 8-byte Folded Reload
	ldr	x1, [sp, #16]
	ldrsb	w2, [sp, #15]
	bl	__ZNSt3__112basic_stringIcNS_11char_traitsIcEENS_9allocatorIcEEE6__initEmc
	ldr	x0, [sp]                        ; 8-byte Folded Reload
	bl	__ZNSt3__119__debug_db_insert_cB6v15006INS_12basic_stringIcNS_11char_traitsIcEENS_9allocatorIcEEEEEEvPT_
	ldr	x0, [sp]                        ; 8-byte Folded Reload
	ldp	x29, x30, [sp, #32]             ; 16-byte Folded Reload
	add	sp, sp, #48
	ret
	.cfi_endproc
                                        ; -- End function
	.globl	__ZNSt3__117__compressed_pairINS_12basic_stringIcNS_11char_traitsIcEENS_9allocatorIcEEE5__repES5_EC1B6v15006INS_18__default_init_tagESA_EEOT_OT0_ ; -- Begin function _ZNSt3__117__compressed_pairINS_12basic_stringIcNS_11char_traitsIcEENS_9allocatorIcEEE5__repES5_EC1B6v15006INS_18__default_init_tagESA_EEOT_OT0_
	.weak_def_can_be_hidden	__ZNSt3__117__compressed_pairINS_12basic_stringIcNS_11char_traitsIcEENS_9allocatorIcEEE5__repES5_EC1B6v15006INS_18__default_init_tagESA_EEOT_OT0_
	.p2align	2
__ZNSt3__117__compressed_pairINS_12basic_stringIcNS_11char_traitsIcEENS_9allocatorIcEEE5__repES5_EC1B6v15006INS_18__default_init_tagESA_EEOT_OT0_: ; @_ZNSt3__117__compressed_pairINS_12basic_stringIcNS_11char_traitsIcEENS_9allocatorIcEEE5__repES5_EC1B6v15006INS_18__default_init_tagESA_EEOT_OT0_
	.cfi_startproc
; %bb.0:
	sub	sp, sp, #48
	.cfi_def_cfa_offset 48
	stp	x29, x30, [sp, #32]             ; 16-byte Folded Spill
	add	x29, sp, #32
	.cfi_def_cfa w29, 16
	.cfi_offset w30, -8
	.cfi_offset w29, -16
	stur	x0, [x29, #-8]
	str	x1, [sp, #16]
	str	x2, [sp, #8]
	ldur	x0, [x29, #-8]
	str	x0, [sp]                        ; 8-byte Folded Spill
	ldr	x1, [sp, #16]
	ldr	x2, [sp, #8]
	bl	__ZNSt3__117__compressed_pairINS_12basic_stringIcNS_11char_traitsIcEENS_9allocatorIcEEE5__repES5_EC2B6v15006INS_18__default_init_tagESA_EEOT_OT0_
	ldr	x0, [sp]                        ; 8-byte Folded Reload
	ldp	x29, x30, [sp, #32]             ; 16-byte Folded Reload
	add	sp, sp, #48
	ret
	.cfi_endproc
                                        ; -- End function
	.private_extern	__ZNSt3__119__debug_db_insert_cB6v15006INS_12basic_stringIcNS_11char_traitsIcEENS_9allocatorIcEEEEEEvPT_ ; -- Begin function _ZNSt3__119__debug_db_insert_cB6v15006INS_12basic_stringIcNS_11char_traitsIcEENS_9allocatorIcEEEEEEvPT_
	.globl	__ZNSt3__119__debug_db_insert_cB6v15006INS_12basic_stringIcNS_11char_traitsIcEENS_9allocatorIcEEEEEEvPT_
	.weak_definition	__ZNSt3__119__debug_db_insert_cB6v15006INS_12basic_stringIcNS_11char_traitsIcEENS_9allocatorIcEEEEEEvPT_
	.p2align	2
__ZNSt3__119__debug_db_insert_cB6v15006INS_12basic_stringIcNS_11char_traitsIcEENS_9allocatorIcEEEEEEvPT_: ; @_ZNSt3__119__debug_db_insert_cB6v15006INS_12basic_stringIcNS_11char_traitsIcEENS_9allocatorIcEEEEEEvPT_
	.cfi_startproc
; %bb.0:
	sub	sp, sp, #16
	.cfi_def_cfa_offset 16
	str	x0, [sp, #8]
	add	sp, sp, #16
	ret
	.cfi_endproc
                                        ; -- End function
	.globl	__ZNSt3__117__compressed_pairINS_12basic_stringIcNS_11char_traitsIcEENS_9allocatorIcEEE5__repES5_EC2B6v15006INS_18__default_init_tagESA_EEOT_OT0_ ; -- Begin function _ZNSt3__117__compressed_pairINS_12basic_stringIcNS_11char_traitsIcEENS_9allocatorIcEEE5__repES5_EC2B6v15006INS_18__default_init_tagESA_EEOT_OT0_
	.weak_def_can_be_hidden	__ZNSt3__117__compressed_pairINS_12basic_stringIcNS_11char_traitsIcEENS_9allocatorIcEEE5__repES5_EC2B6v15006INS_18__default_init_tagESA_EEOT_OT0_
	.p2align	2
__ZNSt3__117__compressed_pairINS_12basic_stringIcNS_11char_traitsIcEENS_9allocatorIcEEE5__repES5_EC2B6v15006INS_18__default_init_tagESA_EEOT_OT0_: ; @_ZNSt3__117__compressed_pairINS_12basic_stringIcNS_11char_traitsIcEENS_9allocatorIcEEE5__repES5_EC2B6v15006INS_18__default_init_tagESA_EEOT_OT0_
	.cfi_startproc
; %bb.0:
	sub	sp, sp, #64
	.cfi_def_cfa_offset 64
	stp	x29, x30, [sp, #48]             ; 16-byte Folded Spill
	add	x29, sp, #48
	.cfi_def_cfa w29, 16
	.cfi_offset w30, -8
	.cfi_offset w29, -16
	stur	x0, [x29, #-8]
	stur	x1, [x29, #-16]
	str	x2, [sp, #24]
	ldur	x0, [x29, #-8]
	str	x0, [sp, #8]                    ; 8-byte Folded Spill
	bl	__ZNSt3__122__compressed_pair_elemINS_12basic_stringIcNS_11char_traitsIcEENS_9allocatorIcEEE5__repELi0ELb0EEC2B6v15006ENS_18__default_init_tagE
	ldr	x0, [sp, #8]                    ; 8-byte Folded Reload
	bl	__ZNSt3__122__compressed_pair_elemINS_9allocatorIcEELi1ELb1EEC2B6v15006ENS_18__default_init_tagE
	ldr	x0, [sp, #8]                    ; 8-byte Folded Reload
	ldp	x29, x30, [sp, #48]             ; 16-byte Folded Reload
	add	sp, sp, #64
	ret
	.cfi_endproc
                                        ; -- End function
	.private_extern	__ZNSt3__122__compressed_pair_elemINS_12basic_stringIcNS_11char_traitsIcEENS_9allocatorIcEEE5__repELi0ELb0EEC2B6v15006ENS_18__default_init_tagE ; -- Begin function _ZNSt3__122__compressed_pair_elemINS_12basic_stringIcNS_11char_traitsIcEENS_9allocatorIcEEE5__repELi0ELb0EEC2B6v15006ENS_18__default_init_tagE
	.globl	__ZNSt3__122__compressed_pair_elemINS_12basic_stringIcNS_11char_traitsIcEENS_9allocatorIcEEE5__repELi0ELb0EEC2B6v15006ENS_18__default_init_tagE
	.weak_def_can_be_hidden	__ZNSt3__122__compressed_pair_elemINS_12basic_stringIcNS_11char_traitsIcEENS_9allocatorIcEEE5__repELi0ELb0EEC2B6v15006ENS_18__default_init_tagE
	.p2align	2
__ZNSt3__122__compressed_pair_elemINS_12basic_stringIcNS_11char_traitsIcEENS_9allocatorIcEEE5__repELi0ELb0EEC2B6v15006ENS_18__default_init_tagE: ; @_ZNSt3__122__compressed_pair_elemINS_12basic_stringIcNS_11char_traitsIcEENS_9allocatorIcEEE5__repELi0ELb0EEC2B6v15006ENS_18__default_init_tagE
	.cfi_startproc
; %bb.0:
	sub	sp, sp, #16
	.cfi_def_cfa_offset 16
	str	x0, [sp]
	ldr	x0, [sp]
	add	sp, sp, #16
	ret
	.cfi_endproc
                                        ; -- End function
	.private_extern	__ZNSt3__122__compressed_pair_elemINS_9allocatorIcEELi1ELb1EEC2B6v15006ENS_18__default_init_tagE ; -- Begin function _ZNSt3__122__compressed_pair_elemINS_9allocatorIcEELi1ELb1EEC2B6v15006ENS_18__default_init_tagE
	.globl	__ZNSt3__122__compressed_pair_elemINS_9allocatorIcEELi1ELb1EEC2B6v15006ENS_18__default_init_tagE
	.weak_def_can_be_hidden	__ZNSt3__122__compressed_pair_elemINS_9allocatorIcEELi1ELb1EEC2B6v15006ENS_18__default_init_tagE
	.p2align	2
__ZNSt3__122__compressed_pair_elemINS_9allocatorIcEELi1ELb1EEC2B6v15006ENS_18__default_init_tagE: ; @_ZNSt3__122__compressed_pair_elemINS_9allocatorIcEELi1ELb1EEC2B6v15006ENS_18__default_init_tagE
	.cfi_startproc
; %bb.0:
	sub	sp, sp, #48
	.cfi_def_cfa_offset 48
	stp	x29, x30, [sp, #32]             ; 16-byte Folded Spill
	add	x29, sp, #32
	.cfi_def_cfa w29, 16
	.cfi_offset w30, -8
	.cfi_offset w29, -16
	str	x0, [sp, #16]
	ldr	x0, [sp, #16]
	str	x0, [sp, #8]                    ; 8-byte Folded Spill
	bl	__ZNSt3__19allocatorIcEC2B6v15006Ev
	ldr	x0, [sp, #8]                    ; 8-byte Folded Reload
	ldp	x29, x30, [sp, #32]             ; 16-byte Folded Reload
	add	sp, sp, #48
	ret
	.cfi_endproc
                                        ; -- End function
	.private_extern	__ZNSt3__19allocatorIcEC2B6v15006Ev ; -- Begin function _ZNSt3__19allocatorIcEC2B6v15006Ev
	.globl	__ZNSt3__19allocatorIcEC2B6v15006Ev
	.weak_def_can_be_hidden	__ZNSt3__19allocatorIcEC2B6v15006Ev
	.p2align	2
__ZNSt3__19allocatorIcEC2B6v15006Ev:    ; @_ZNSt3__19allocatorIcEC2B6v15006Ev
	.cfi_startproc
; %bb.0:
	sub	sp, sp, #32
	.cfi_def_cfa_offset 32
	stp	x29, x30, [sp, #16]             ; 16-byte Folded Spill
	add	x29, sp, #16
	.cfi_def_cfa w29, 16
	.cfi_offset w30, -8
	.cfi_offset w29, -16
	str	x0, [sp, #8]
	ldr	x0, [sp, #8]
	str	x0, [sp]                        ; 8-byte Folded Spill
	bl	__ZNSt3__116__non_trivial_ifILb1ENS_9allocatorIcEEEC2B6v15006Ev
	ldr	x0, [sp]                        ; 8-byte Folded Reload
	ldp	x29, x30, [sp, #16]             ; 16-byte Folded Reload
	add	sp, sp, #32
	ret
	.cfi_endproc
                                        ; -- End function
	.private_extern	__ZNSt3__116__non_trivial_ifILb1ENS_9allocatorIcEEEC2B6v15006Ev ; -- Begin function _ZNSt3__116__non_trivial_ifILb1ENS_9allocatorIcEEEC2B6v15006Ev
	.globl	__ZNSt3__116__non_trivial_ifILb1ENS_9allocatorIcEEEC2B6v15006Ev
	.weak_def_can_be_hidden	__ZNSt3__116__non_trivial_ifILb1ENS_9allocatorIcEEEC2B6v15006Ev
	.p2align	2
__ZNSt3__116__non_trivial_ifILb1ENS_9allocatorIcEEEC2B6v15006Ev: ; @_ZNSt3__116__non_trivial_ifILb1ENS_9allocatorIcEEEC2B6v15006Ev
	.cfi_startproc
; %bb.0:
	sub	sp, sp, #16
	.cfi_def_cfa_offset 16
	str	x0, [sp, #8]
	ldr	x0, [sp, #8]
	add	sp, sp, #16
	ret
	.cfi_endproc
                                        ; -- End function
	.private_extern	__ZNSt3__112__to_addressB6v15006IKcEEPT_S3_ ; -- Begin function _ZNSt3__112__to_addressB6v15006IKcEEPT_S3_
	.globl	__ZNSt3__112__to_addressB6v15006IKcEEPT_S3_
	.weak_definition	__ZNSt3__112__to_addressB6v15006IKcEEPT_S3_
	.p2align	2
__ZNSt3__112__to_addressB6v15006IKcEEPT_S3_: ; @_ZNSt3__112__to_addressB6v15006IKcEEPT_S3_
	.cfi_startproc
; %bb.0:
	sub	sp, sp, #16
	.cfi_def_cfa_offset 16
	str	x0, [sp, #8]
	ldr	x0, [sp, #8]
	add	sp, sp, #16
	ret
	.cfi_endproc
                                        ; -- End function
	.private_extern	__ZNKSt3__112basic_stringIcNS_11char_traitsIcEENS_9allocatorIcEEE13__get_pointerB6v15006Ev ; -- Begin function _ZNKSt3__112basic_stringIcNS_11char_traitsIcEENS_9allocatorIcEEE13__get_pointerB6v15006Ev
	.globl	__ZNKSt3__112basic_stringIcNS_11char_traitsIcEENS_9allocatorIcEEE13__get_pointerB6v15006Ev
	.weak_definition	__ZNKSt3__112basic_stringIcNS_11char_traitsIcEENS_9allocatorIcEEE13__get_pointerB6v15006Ev
	.p2align	2
__ZNKSt3__112basic_stringIcNS_11char_traitsIcEENS_9allocatorIcEEE13__get_pointerB6v15006Ev: ; @_ZNKSt3__112basic_stringIcNS_11char_traitsIcEENS_9allocatorIcEEE13__get_pointerB6v15006Ev
	.cfi_startproc
; %bb.0:
	sub	sp, sp, #48
	.cfi_def_cfa_offset 48
	stp	x29, x30, [sp, #32]             ; 16-byte Folded Spill
	add	x29, sp, #32
	.cfi_def_cfa w29, 16
	.cfi_offset w30, -8
	.cfi_offset w29, -16
	stur	x0, [x29, #-8]
	ldur	x0, [x29, #-8]
	str	x0, [sp, #16]                   ; 8-byte Folded Spill
	bl	__ZNKSt3__112basic_stringIcNS_11char_traitsIcEENS_9allocatorIcEEE9__is_longB6v15006Ev
	tbz	w0, #0, LBB41_2
	b	LBB41_1
LBB41_1:
	ldr	x0, [sp, #16]                   ; 8-byte Folded Reload
	bl	__ZNKSt3__112basic_stringIcNS_11char_traitsIcEENS_9allocatorIcEEE18__get_long_pointerB6v15006Ev
	str	x0, [sp, #8]                    ; 8-byte Folded Spill
	b	LBB41_3
LBB41_2:
	ldr	x0, [sp, #16]                   ; 8-byte Folded Reload
	bl	__ZNKSt3__112basic_stringIcNS_11char_traitsIcEENS_9allocatorIcEEE19__get_short_pointerB6v15006Ev
	str	x0, [sp, #8]                    ; 8-byte Folded Spill
	b	LBB41_3
LBB41_3:
	ldr	x0, [sp, #8]                    ; 8-byte Folded Reload
	ldp	x29, x30, [sp, #32]             ; 16-byte Folded Reload
	add	sp, sp, #48
	ret
	.cfi_endproc
                                        ; -- End function
	.private_extern	__ZNKSt3__112basic_stringIcNS_11char_traitsIcEENS_9allocatorIcEEE9__is_longB6v15006Ev ; -- Begin function _ZNKSt3__112basic_stringIcNS_11char_traitsIcEENS_9allocatorIcEEE9__is_longB6v15006Ev
	.globl	__ZNKSt3__112basic_stringIcNS_11char_traitsIcEENS_9allocatorIcEEE9__is_longB6v15006Ev
	.weak_definition	__ZNKSt3__112basic_stringIcNS_11char_traitsIcEENS_9allocatorIcEEE9__is_longB6v15006Ev
	.p2align	2
__ZNKSt3__112basic_stringIcNS_11char_traitsIcEENS_9allocatorIcEEE9__is_longB6v15006Ev: ; @_ZNKSt3__112basic_stringIcNS_11char_traitsIcEENS_9allocatorIcEEE9__is_longB6v15006Ev
	.cfi_startproc
; %bb.0:
	sub	sp, sp, #48
	.cfi_def_cfa_offset 48
	stp	x29, x30, [sp, #32]             ; 16-byte Folded Spill
	add	x29, sp, #32
	.cfi_def_cfa w29, 16
	.cfi_offset w30, -8
	.cfi_offset w29, -16
	str	x0, [sp, #16]
	ldr	x8, [sp, #16]
	str	x8, [sp, #8]                    ; 8-byte Folded Spill
	bl	__ZNSt3__130__libcpp_is_constant_evaluatedEv
	tbz	w0, #0, LBB42_2
	b	LBB42_1
LBB42_1:
	mov	w8, #1
	and	w8, w8, #0x1
	and	w8, w8, #0x1
	sturb	w8, [x29, #-1]
	b	LBB42_3
LBB42_2:
	ldr	x0, [sp, #8]                    ; 8-byte Folded Reload
	bl	__ZNKSt3__117__compressed_pairINS_12basic_stringIcNS_11char_traitsIcEENS_9allocatorIcEEE5__repES5_E5firstB6v15006Ev
	ldrb	w8, [x0, #23]
	lsr	w8, w8, #7
	ands	w8, w8, #0xff
	cset	w8, ne
	and	w8, w8, #0x1
	and	w8, w8, #0x1
	sturb	w8, [x29, #-1]
	b	LBB42_3
LBB42_3:
	ldurb	w8, [x29, #-1]
	and	w0, w8, #0x1
	ldp	x29, x30, [sp, #32]             ; 16-byte Folded Reload
	add	sp, sp, #48
	ret
	.cfi_endproc
                                        ; -- End function
	.private_extern	__ZNKSt3__112basic_stringIcNS_11char_traitsIcEENS_9allocatorIcEEE18__get_long_pointerB6v15006Ev ; -- Begin function _ZNKSt3__112basic_stringIcNS_11char_traitsIcEENS_9allocatorIcEEE18__get_long_pointerB6v15006Ev
	.globl	__ZNKSt3__112basic_stringIcNS_11char_traitsIcEENS_9allocatorIcEEE18__get_long_pointerB6v15006Ev
	.weak_definition	__ZNKSt3__112basic_stringIcNS_11char_traitsIcEENS_9allocatorIcEEE18__get_long_pointerB6v15006Ev
	.p2align	2
__ZNKSt3__112basic_stringIcNS_11char_traitsIcEENS_9allocatorIcEEE18__get_long_pointerB6v15006Ev: ; @_ZNKSt3__112basic_stringIcNS_11char_traitsIcEENS_9allocatorIcEEE18__get_long_pointerB6v15006Ev
	.cfi_startproc
; %bb.0:
	sub	sp, sp, #32
	.cfi_def_cfa_offset 32
	stp	x29, x30, [sp, #16]             ; 16-byte Folded Spill
	add	x29, sp, #16
	.cfi_def_cfa w29, 16
	.cfi_offset w30, -8
	.cfi_offset w29, -16
	str	x0, [sp, #8]
	ldr	x0, [sp, #8]
	bl	__ZNKSt3__117__compressed_pairINS_12basic_stringIcNS_11char_traitsIcEENS_9allocatorIcEEE5__repES5_E5firstB6v15006Ev
	ldr	x0, [x0]
	ldp	x29, x30, [sp, #16]             ; 16-byte Folded Reload
	add	sp, sp, #32
	ret
	.cfi_endproc
                                        ; -- End function
	.private_extern	__ZNKSt3__112basic_stringIcNS_11char_traitsIcEENS_9allocatorIcEEE19__get_short_pointerB6v15006Ev ; -- Begin function _ZNKSt3__112basic_stringIcNS_11char_traitsIcEENS_9allocatorIcEEE19__get_short_pointerB6v15006Ev
	.globl	__ZNKSt3__112basic_stringIcNS_11char_traitsIcEENS_9allocatorIcEEE19__get_short_pointerB6v15006Ev
	.weak_definition	__ZNKSt3__112basic_stringIcNS_11char_traitsIcEENS_9allocatorIcEEE19__get_short_pointerB6v15006Ev
	.p2align	2
__ZNKSt3__112basic_stringIcNS_11char_traitsIcEENS_9allocatorIcEEE19__get_short_pointerB6v15006Ev: ; @_ZNKSt3__112basic_stringIcNS_11char_traitsIcEENS_9allocatorIcEEE19__get_short_pointerB6v15006Ev
	.cfi_startproc
; %bb.0:
	sub	sp, sp, #32
	.cfi_def_cfa_offset 32
	stp	x29, x30, [sp, #16]             ; 16-byte Folded Spill
	add	x29, sp, #16
	.cfi_def_cfa w29, 16
	.cfi_offset w30, -8
	.cfi_offset w29, -16
	str	x0, [sp, #8]
	ldr	x0, [sp, #8]
	bl	__ZNKSt3__117__compressed_pairINS_12basic_stringIcNS_11char_traitsIcEENS_9allocatorIcEEE5__repES5_E5firstB6v15006Ev
	bl	__ZNSt3__114pointer_traitsIPKcE10pointer_toB6v15006ERS1_
	ldp	x29, x30, [sp, #16]             ; 16-byte Folded Reload
	add	sp, sp, #32
	ret
	.cfi_endproc
                                        ; -- End function
	.globl	__ZNSt3__130__libcpp_is_constant_evaluatedEv ; -- Begin function _ZNSt3__130__libcpp_is_constant_evaluatedEv
	.weak_definition	__ZNSt3__130__libcpp_is_constant_evaluatedEv
	.p2align	2
__ZNSt3__130__libcpp_is_constant_evaluatedEv: ; @_ZNSt3__130__libcpp_is_constant_evaluatedEv
	.cfi_startproc
; %bb.0:
	mov	w8, #0
	and	w0, w8, #0x1
	ret
	.cfi_endproc
                                        ; -- End function
	.private_extern	__ZNKSt3__117__compressed_pairINS_12basic_stringIcNS_11char_traitsIcEENS_9allocatorIcEEE5__repES5_E5firstB6v15006Ev ; -- Begin function _ZNKSt3__117__compressed_pairINS_12basic_stringIcNS_11char_traitsIcEENS_9allocatorIcEEE5__repES5_E5firstB6v15006Ev
	.globl	__ZNKSt3__117__compressed_pairINS_12basic_stringIcNS_11char_traitsIcEENS_9allocatorIcEEE5__repES5_E5firstB6v15006Ev
	.weak_definition	__ZNKSt3__117__compressed_pairINS_12basic_stringIcNS_11char_traitsIcEENS_9allocatorIcEEE5__repES5_E5firstB6v15006Ev
	.p2align	2
__ZNKSt3__117__compressed_pairINS_12basic_stringIcNS_11char_traitsIcEENS_9allocatorIcEEE5__repES5_E5firstB6v15006Ev: ; @_ZNKSt3__117__compressed_pairINS_12basic_stringIcNS_11char_traitsIcEENS_9allocatorIcEEE5__repES5_E5firstB6v15006Ev
	.cfi_startproc
; %bb.0:
	sub	sp, sp, #32
	.cfi_def_cfa_offset 32
	stp	x29, x30, [sp, #16]             ; 16-byte Folded Spill
	add	x29, sp, #16
	.cfi_def_cfa w29, 16
	.cfi_offset w30, -8
	.cfi_offset w29, -16
	str	x0, [sp, #8]
	ldr	x0, [sp, #8]
	bl	__ZNKSt3__122__compressed_pair_elemINS_12basic_stringIcNS_11char_traitsIcEENS_9allocatorIcEEE5__repELi0ELb0EE5__getB6v15006Ev
	ldp	x29, x30, [sp, #16]             ; 16-byte Folded Reload
	add	sp, sp, #32
	ret
	.cfi_endproc
                                        ; -- End function
	.private_extern	__ZNKSt3__122__compressed_pair_elemINS_12basic_stringIcNS_11char_traitsIcEENS_9allocatorIcEEE5__repELi0ELb0EE5__getB6v15006Ev ; -- Begin function _ZNKSt3__122__compressed_pair_elemINS_12basic_stringIcNS_11char_traitsIcEENS_9allocatorIcEEE5__repELi0ELb0EE5__getB6v15006Ev
	.globl	__ZNKSt3__122__compressed_pair_elemINS_12basic_stringIcNS_11char_traitsIcEENS_9allocatorIcEEE5__repELi0ELb0EE5__getB6v15006Ev
	.weak_definition	__ZNKSt3__122__compressed_pair_elemINS_12basic_stringIcNS_11char_traitsIcEENS_9allocatorIcEEE5__repELi0ELb0EE5__getB6v15006Ev
	.p2align	2
__ZNKSt3__122__compressed_pair_elemINS_12basic_stringIcNS_11char_traitsIcEENS_9allocatorIcEEE5__repELi0ELb0EE5__getB6v15006Ev: ; @_ZNKSt3__122__compressed_pair_elemINS_12basic_stringIcNS_11char_traitsIcEENS_9allocatorIcEEE5__repELi0ELb0EE5__getB6v15006Ev
	.cfi_startproc
; %bb.0:
	sub	sp, sp, #16
	.cfi_def_cfa_offset 16
	str	x0, [sp, #8]
	ldr	x0, [sp, #8]
	add	sp, sp, #16
	ret
	.cfi_endproc
                                        ; -- End function
	.private_extern	__ZNSt3__114pointer_traitsIPKcE10pointer_toB6v15006ERS1_ ; -- Begin function _ZNSt3__114pointer_traitsIPKcE10pointer_toB6v15006ERS1_
	.globl	__ZNSt3__114pointer_traitsIPKcE10pointer_toB6v15006ERS1_
	.weak_definition	__ZNSt3__114pointer_traitsIPKcE10pointer_toB6v15006ERS1_
	.p2align	2
__ZNSt3__114pointer_traitsIPKcE10pointer_toB6v15006ERS1_: ; @_ZNSt3__114pointer_traitsIPKcE10pointer_toB6v15006ERS1_
	.cfi_startproc
; %bb.0:
	sub	sp, sp, #16
	.cfi_def_cfa_offset 16
	str	x0, [sp, #8]
	ldr	x0, [sp, #8]
	add	sp, sp, #16
	ret
	.cfi_endproc
                                        ; -- End function
	.private_extern	__ZNSt3__119ostreambuf_iteratorIcNS_11char_traitsIcEEEC2B6v15006ERNS_13basic_ostreamIcS2_EE ; -- Begin function _ZNSt3__119ostreambuf_iteratorIcNS_11char_traitsIcEEEC2B6v15006ERNS_13basic_ostreamIcS2_EE
	.globl	__ZNSt3__119ostreambuf_iteratorIcNS_11char_traitsIcEEEC2B6v15006ERNS_13basic_ostreamIcS2_EE
	.weak_def_can_be_hidden	__ZNSt3__119ostreambuf_iteratorIcNS_11char_traitsIcEEEC2B6v15006ERNS_13basic_ostreamIcS2_EE
	.p2align	2
__ZNSt3__119ostreambuf_iteratorIcNS_11char_traitsIcEEEC2B6v15006ERNS_13basic_ostreamIcS2_EE: ; @_ZNSt3__119ostreambuf_iteratorIcNS_11char_traitsIcEEEC2B6v15006ERNS_13basic_ostreamIcS2_EE
Lfunc_begin9:
	.cfi_startproc
	.cfi_personality 155, ___gxx_personality_v0
	.cfi_lsda 16, Lexception9
; %bb.0:
	sub	sp, sp, #64
	.cfi_def_cfa_offset 64
	stp	x29, x30, [sp, #48]             ; 16-byte Folded Spill
	add	x29, sp, #48
	.cfi_def_cfa w29, 16
	.cfi_offset w30, -8
	.cfi_offset w29, -16
	stur	x0, [x29, #-8]
	stur	x1, [x29, #-16]
	ldur	x8, [x29, #-8]
	str	x8, [sp]                        ; 8-byte Folded Spill
	ldur	x8, [x29, #-16]
	ldr	x9, [x8]
	ldur	x9, [x9, #-24]
Ltmp156:
	add	x0, x8, x9
	bl	__ZNKSt3__19basic_iosIcNS_11char_traitsIcEEE5rdbufB6v15006Ev
	str	x0, [sp, #8]                    ; 8-byte Folded Spill
Ltmp157:
	b	LBB49_1
LBB49_1:
	ldr	x0, [sp]                        ; 8-byte Folded Reload
	ldr	x8, [sp, #8]                    ; 8-byte Folded Reload
	str	x8, [x0]
	ldp	x29, x30, [sp, #48]             ; 16-byte Folded Reload
	add	sp, sp, #64
	ret
LBB49_2:
Ltmp158:
	mov	x8, x1
	str	x0, [sp, #24]
	str	w8, [sp, #20]
	b	LBB49_3
LBB49_3:
	ldr	x0, [sp, #24]
	bl	___cxa_call_unexpected
Lfunc_end9:
	.cfi_endproc
	.section	__TEXT,__gcc_except_tab
	.p2align	2
GCC_except_table49:
Lexception9:
	.byte	255                             ; @LPStart Encoding = omit
	.byte	155                             ; @TType Encoding = indirect pcrel sdata4
	.uleb128 Lttbase8-Lttbaseref8
Lttbaseref8:
	.byte	1                               ; Call site Encoding = uleb128
	.uleb128 Lcst_end9-Lcst_begin9
Lcst_begin9:
	.uleb128 Ltmp156-Lfunc_begin9           ; >> Call Site 1 <<
	.uleb128 Ltmp157-Ltmp156                ;   Call between Ltmp156 and Ltmp157
	.uleb128 Ltmp158-Lfunc_begin9           ;     jumps to Ltmp158
	.byte	1                               ;   On action: 1
	.uleb128 Ltmp157-Lfunc_begin9           ; >> Call Site 2 <<
	.uleb128 Lfunc_end9-Ltmp157             ;   Call between Ltmp157 and Lfunc_end9
	.byte	0                               ;     has no landing pad
	.byte	0                               ;   On action: cleanup
Lcst_end9:
	.byte	127                             ; >> Action Record 1 <<
                                        ;   Filter TypeInfo -1
	.byte	0                               ;   No further actions
	.p2align	2
Lttbase8:
                                        ; >> Filter TypeInfos <<
	.byte	0
	.p2align	2
                                        ; -- End function
	.section	__TEXT,__text,regular,pure_instructions
	.private_extern	__ZNKSt3__19basic_iosIcNS_11char_traitsIcEEE5rdbufB6v15006Ev ; -- Begin function _ZNKSt3__19basic_iosIcNS_11char_traitsIcEEE5rdbufB6v15006Ev
	.globl	__ZNKSt3__19basic_iosIcNS_11char_traitsIcEEE5rdbufB6v15006Ev
	.weak_definition	__ZNKSt3__19basic_iosIcNS_11char_traitsIcEEE5rdbufB6v15006Ev
	.p2align	2
__ZNKSt3__19basic_iosIcNS_11char_traitsIcEEE5rdbufB6v15006Ev: ; @_ZNKSt3__19basic_iosIcNS_11char_traitsIcEEE5rdbufB6v15006Ev
	.cfi_startproc
; %bb.0:
	sub	sp, sp, #32
	.cfi_def_cfa_offset 32
	stp	x29, x30, [sp, #16]             ; 16-byte Folded Spill
	add	x29, sp, #16
	.cfi_def_cfa w29, 16
	.cfi_offset w30, -8
	.cfi_offset w29, -16
	str	x0, [sp, #8]
	ldr	x0, [sp, #8]
	bl	__ZNKSt3__18ios_base5rdbufB6v15006Ev
	ldp	x29, x30, [sp, #16]             ; 16-byte Folded Reload
	add	sp, sp, #32
	ret
	.cfi_endproc
                                        ; -- End function
	.private_extern	__ZNKSt3__18ios_base5rdbufB6v15006Ev ; -- Begin function _ZNKSt3__18ios_base5rdbufB6v15006Ev
	.globl	__ZNKSt3__18ios_base5rdbufB6v15006Ev
	.weak_definition	__ZNKSt3__18ios_base5rdbufB6v15006Ev
	.p2align	2
__ZNKSt3__18ios_base5rdbufB6v15006Ev:   ; @_ZNKSt3__18ios_base5rdbufB6v15006Ev
	.cfi_startproc
; %bb.0:
	sub	sp, sp, #16
	.cfi_def_cfa_offset 16
	str	x0, [sp, #8]
	ldr	x8, [sp, #8]
	ldr	x0, [x8, #40]
	add	sp, sp, #16
	ret
	.cfi_endproc
                                        ; -- End function
	.globl	__ZNSt3__111char_traitsIcE11eq_int_typeEii ; -- Begin function _ZNSt3__111char_traitsIcE11eq_int_typeEii
	.weak_definition	__ZNSt3__111char_traitsIcE11eq_int_typeEii
	.p2align	2
__ZNSt3__111char_traitsIcE11eq_int_typeEii: ; @_ZNSt3__111char_traitsIcE11eq_int_typeEii
	.cfi_startproc
; %bb.0:
	sub	sp, sp, #16
	.cfi_def_cfa_offset 16
	str	w0, [sp, #12]
	str	w1, [sp, #8]
	ldr	w8, [sp, #12]
	ldr	w9, [sp, #8]
	subs	w8, w8, w9
	cset	w8, eq
	and	w0, w8, #0x1
	add	sp, sp, #16
	ret
	.cfi_endproc
                                        ; -- End function
	.globl	__ZNSt3__111char_traitsIcE3eofEv ; -- Begin function _ZNSt3__111char_traitsIcE3eofEv
	.weak_definition	__ZNSt3__111char_traitsIcE3eofEv
	.p2align	2
__ZNSt3__111char_traitsIcE3eofEv:       ; @_ZNSt3__111char_traitsIcE3eofEv
	.cfi_startproc
; %bb.0:
	mov	w0, #-1
	ret
	.cfi_endproc
                                        ; -- End function
	.private_extern	__ZNKSt3__19basic_iosIcNS_11char_traitsIcEEE5widenB6v15006Ec ; -- Begin function _ZNKSt3__19basic_iosIcNS_11char_traitsIcEEE5widenB6v15006Ec
	.globl	__ZNKSt3__19basic_iosIcNS_11char_traitsIcEEE5widenB6v15006Ec
	.weak_definition	__ZNKSt3__19basic_iosIcNS_11char_traitsIcEEE5widenB6v15006Ec
	.p2align	2
__ZNKSt3__19basic_iosIcNS_11char_traitsIcEEE5widenB6v15006Ec: ; @_ZNKSt3__19basic_iosIcNS_11char_traitsIcEEE5widenB6v15006Ec
Lfunc_begin10:
	.cfi_startproc
	.cfi_personality 155, ___gxx_personality_v0
	.cfi_lsda 16, Lexception10
; %bb.0:
	sub	sp, sp, #80
	.cfi_def_cfa_offset 80
	stp	x29, x30, [sp, #64]             ; 16-byte Folded Spill
	add	x29, sp, #64
	.cfi_def_cfa w29, 16
	.cfi_offset w30, -8
	.cfi_offset w29, -16
	stur	x0, [x29, #-8]
	sturb	w1, [x29, #-9]
	ldur	x0, [x29, #-8]
	sub	x8, x29, #24
	str	x8, [sp, #8]                    ; 8-byte Folded Spill
	bl	__ZNKSt3__18ios_base6getlocEv
	ldr	x0, [sp, #8]                    ; 8-byte Folded Reload
Ltmp161:
	bl	__ZNSt3__19use_facetB6v15006INS_5ctypeIcEEEERKT_RKNS_6localeE
	str	x0, [sp, #16]                   ; 8-byte Folded Spill
Ltmp162:
	b	LBB54_1
LBB54_1:
	ldr	x0, [sp, #16]                   ; 8-byte Folded Reload
	ldursb	w1, [x29, #-9]
Ltmp163:
	bl	__ZNKSt3__15ctypeIcE5widenB6v15006Ec
	str	w0, [sp, #4]                    ; 4-byte Folded Spill
Ltmp164:
	b	LBB54_2
LBB54_2:
	sub	x0, x29, #24
	bl	__ZNSt3__16localeD1Ev
	ldr	w8, [sp, #4]                    ; 4-byte Folded Reload
	sxtb	w0, w8
	ldp	x29, x30, [sp, #64]             ; 16-byte Folded Reload
	add	sp, sp, #80
	ret
LBB54_3:
Ltmp165:
	mov	x8, x1
	str	x0, [sp, #32]
	str	w8, [sp, #28]
Ltmp166:
	sub	x0, x29, #24
	bl	__ZNSt3__16localeD1Ev
Ltmp167:
	b	LBB54_4
LBB54_4:
	b	LBB54_5
LBB54_5:
	ldr	x0, [sp, #32]
	bl	__Unwind_Resume
LBB54_6:
Ltmp168:
	bl	___clang_call_terminate
Lfunc_end10:
	.cfi_endproc
	.section	__TEXT,__gcc_except_tab
	.p2align	2
GCC_except_table54:
Lexception10:
	.byte	255                             ; @LPStart Encoding = omit
	.byte	155                             ; @TType Encoding = indirect pcrel sdata4
	.uleb128 Lttbase9-Lttbaseref9
Lttbaseref9:
	.byte	1                               ; Call site Encoding = uleb128
	.uleb128 Lcst_end10-Lcst_begin10
Lcst_begin10:
	.uleb128 Lfunc_begin10-Lfunc_begin10    ; >> Call Site 1 <<
	.uleb128 Ltmp161-Lfunc_begin10          ;   Call between Lfunc_begin10 and Ltmp161
	.byte	0                               ;     has no landing pad
	.byte	0                               ;   On action: cleanup
	.uleb128 Ltmp161-Lfunc_begin10          ; >> Call Site 2 <<
	.uleb128 Ltmp164-Ltmp161                ;   Call between Ltmp161 and Ltmp164
	.uleb128 Ltmp165-Lfunc_begin10          ;     jumps to Ltmp165
	.byte	0                               ;   On action: cleanup
	.uleb128 Ltmp164-Lfunc_begin10          ; >> Call Site 3 <<
	.uleb128 Ltmp166-Ltmp164                ;   Call between Ltmp164 and Ltmp166
	.byte	0                               ;     has no landing pad
	.byte	0                               ;   On action: cleanup
	.uleb128 Ltmp166-Lfunc_begin10          ; >> Call Site 4 <<
	.uleb128 Ltmp167-Ltmp166                ;   Call between Ltmp166 and Ltmp167
	.uleb128 Ltmp168-Lfunc_begin10          ;     jumps to Ltmp168
	.byte	1                               ;   On action: 1
	.uleb128 Ltmp167-Lfunc_begin10          ; >> Call Site 5 <<
	.uleb128 Lfunc_end10-Ltmp167            ;   Call between Ltmp167 and Lfunc_end10
	.byte	0                               ;     has no landing pad
	.byte	0                               ;   On action: cleanup
Lcst_end10:
	.byte	1                               ; >> Action Record 1 <<
                                        ;   Catch TypeInfo 1
	.byte	0                               ;   No further actions
	.p2align	2
                                        ; >> Catch TypeInfos <<
	.long	0                               ; TypeInfo 1
Lttbase9:
	.p2align	2
                                        ; -- End function
	.section	__TEXT,__text,regular,pure_instructions
	.private_extern	__ZNSt3__19use_facetB6v15006INS_5ctypeIcEEEERKT_RKNS_6localeE ; -- Begin function _ZNSt3__19use_facetB6v15006INS_5ctypeIcEEEERKT_RKNS_6localeE
	.globl	__ZNSt3__19use_facetB6v15006INS_5ctypeIcEEEERKT_RKNS_6localeE
	.weak_definition	__ZNSt3__19use_facetB6v15006INS_5ctypeIcEEEERKT_RKNS_6localeE
	.p2align	2
__ZNSt3__19use_facetB6v15006INS_5ctypeIcEEEERKT_RKNS_6localeE: ; @_ZNSt3__19use_facetB6v15006INS_5ctypeIcEEEERKT_RKNS_6localeE
	.cfi_startproc
; %bb.0:
	sub	sp, sp, #32
	.cfi_def_cfa_offset 32
	stp	x29, x30, [sp, #16]             ; 16-byte Folded Spill
	add	x29, sp, #16
	.cfi_def_cfa w29, 16
	.cfi_offset w30, -8
	.cfi_offset w29, -16
	str	x0, [sp, #8]
	ldr	x0, [sp, #8]
	adrp	x1, __ZNSt3__15ctypeIcE2idE@GOTPAGE
	ldr	x1, [x1, __ZNSt3__15ctypeIcE2idE@GOTPAGEOFF]
	bl	__ZNKSt3__16locale9use_facetERNS0_2idE
	ldp	x29, x30, [sp, #16]             ; 16-byte Folded Reload
	add	sp, sp, #32
	ret
	.cfi_endproc
                                        ; -- End function
	.private_extern	__ZNKSt3__15ctypeIcE5widenB6v15006Ec ; -- Begin function _ZNKSt3__15ctypeIcE5widenB6v15006Ec
	.globl	__ZNKSt3__15ctypeIcE5widenB6v15006Ec
	.weak_definition	__ZNKSt3__15ctypeIcE5widenB6v15006Ec
	.p2align	2
__ZNKSt3__15ctypeIcE5widenB6v15006Ec:   ; @_ZNKSt3__15ctypeIcE5widenB6v15006Ec
	.cfi_startproc
; %bb.0:
	sub	sp, sp, #32
	.cfi_def_cfa_offset 32
	stp	x29, x30, [sp, #16]             ; 16-byte Folded Spill
	add	x29, sp, #16
	.cfi_def_cfa w29, 16
	.cfi_offset w30, -8
	.cfi_offset w29, -16
	str	x0, [sp, #8]
	strb	w1, [sp, #7]
	ldr	x0, [sp, #8]
	ldrsb	w1, [sp, #7]
	ldr	x8, [x0]
	ldr	x8, [x8, #56]
	blr	x8
	sxtb	w0, w0
	ldp	x29, x30, [sp, #16]             ; 16-byte Folded Reload
	add	sp, sp, #32
	ret
	.cfi_endproc
                                        ; -- End function
	.private_extern	__ZNSt3__18ios_base8setstateB6v15006Ej ; -- Begin function _ZNSt3__18ios_base8setstateB6v15006Ej
	.globl	__ZNSt3__18ios_base8setstateB6v15006Ej
	.weak_definition	__ZNSt3__18ios_base8setstateB6v15006Ej
	.p2align	2
__ZNSt3__18ios_base8setstateB6v15006Ej: ; @_ZNSt3__18ios_base8setstateB6v15006Ej
	.cfi_startproc
; %bb.0:
	sub	sp, sp, #32
	.cfi_def_cfa_offset 32
	stp	x29, x30, [sp, #16]             ; 16-byte Folded Spill
	add	x29, sp, #16
	.cfi_def_cfa w29, 16
	.cfi_offset w30, -8
	.cfi_offset w29, -16
	str	x0, [sp, #8]
	str	w1, [sp, #4]
	ldr	x0, [sp, #8]
	ldr	w8, [x0, #32]
	ldr	w9, [sp, #4]
	orr	w1, w8, w9
	bl	__ZNSt3__18ios_base5clearEj
	ldp	x29, x30, [sp, #16]             ; 16-byte Folded Reload
	add	sp, sp, #32
	ret
	.cfi_endproc
                                        ; -- End function
	.private_extern	__ZNSt3__19basic_iosIcNS_11char_traitsIcEEEC2B6v15006Ev ; -- Begin function _ZNSt3__19basic_iosIcNS_11char_traitsIcEEEC2B6v15006Ev
	.globl	__ZNSt3__19basic_iosIcNS_11char_traitsIcEEEC2B6v15006Ev
	.weak_def_can_be_hidden	__ZNSt3__19basic_iosIcNS_11char_traitsIcEEEC2B6v15006Ev
	.p2align	2
__ZNSt3__19basic_iosIcNS_11char_traitsIcEEEC2B6v15006Ev: ; @_ZNSt3__19basic_iosIcNS_11char_traitsIcEEEC2B6v15006Ev
	.cfi_startproc
; %bb.0:
	sub	sp, sp, #48
	.cfi_def_cfa_offset 48
	stp	x29, x30, [sp, #32]             ; 16-byte Folded Spill
	add	x29, sp, #32
	.cfi_def_cfa w29, 16
	.cfi_offset w30, -8
	.cfi_offset w29, -16
	adrp	x8, __ZTVNSt3__19basic_iosIcNS_11char_traitsIcEEEE@GOTPAGE
	ldr	x8, [x8, __ZTVNSt3__19basic_iosIcNS_11char_traitsIcEEEE@GOTPAGEOFF]
	add	x8, x8, #16
	str	x8, [sp, #16]                   ; 8-byte Folded Spill
	stur	x0, [x29, #-8]
	ldur	x0, [x29, #-8]
	str	x0, [sp, #8]                    ; 8-byte Folded Spill
	bl	__ZNSt3__18ios_baseC2B6v15006Ev
	ldr	x0, [sp, #8]                    ; 8-byte Folded Reload
	ldr	x8, [sp, #16]                   ; 8-byte Folded Reload
	str	x8, [x0]
	ldp	x29, x30, [sp, #32]             ; 16-byte Folded Reload
	add	sp, sp, #48
	ret
	.cfi_endproc
                                        ; -- End function
	.private_extern	__ZNSt3__114basic_iostreamIcNS_11char_traitsIcEEEC2B6v15006EPNS_15basic_streambufIcS2_EE ; -- Begin function _ZNSt3__114basic_iostreamIcNS_11char_traitsIcEEEC2B6v15006EPNS_15basic_streambufIcS2_EE
	.globl	__ZNSt3__114basic_iostreamIcNS_11char_traitsIcEEEC2B6v15006EPNS_15basic_streambufIcS2_EE
	.weak_def_can_be_hidden	__ZNSt3__114basic_iostreamIcNS_11char_traitsIcEEEC2B6v15006EPNS_15basic_streambufIcS2_EE
	.p2align	2
__ZNSt3__114basic_iostreamIcNS_11char_traitsIcEEEC2B6v15006EPNS_15basic_streambufIcS2_EE: ; @_ZNSt3__114basic_iostreamIcNS_11char_traitsIcEEEC2B6v15006EPNS_15basic_streambufIcS2_EE
Lfunc_begin11:
	.cfi_startproc
	.cfi_personality 155, ___gxx_personality_v0
	.cfi_lsda 16, Lexception11
; %bb.0:
	sub	sp, sp, #80
	.cfi_def_cfa_offset 80
	stp	x29, x30, [sp, #64]             ; 16-byte Folded Spill
	add	x29, sp, #64
	.cfi_def_cfa w29, 16
	.cfi_offset w30, -8
	.cfi_offset w29, -16
	stur	x0, [x29, #-8]
	stur	x1, [x29, #-16]
	stur	x2, [x29, #-24]
	ldur	x0, [x29, #-8]
	str	x0, [sp, #8]                    ; 8-byte Folded Spill
	ldur	x8, [x29, #-16]
	str	x8, [sp, #16]                   ; 8-byte Folded Spill
	ldur	x2, [x29, #-24]
	add	x1, x8, #8
	bl	__ZNSt3__113basic_istreamIcNS_11char_traitsIcEEEC2B6v15006EPNS_15basic_streambufIcS2_EE
	ldr	x9, [sp, #8]                    ; 8-byte Folded Reload
	ldr	x8, [sp, #16]                   ; 8-byte Folded Reload
Ltmp169:
	add	x0, x9, #16
	add	x1, x8, #24
	bl	__ZNSt3__113basic_ostreamIcNS_11char_traitsIcEEEC2B6v15006Ev
Ltmp170:
	b	LBB59_1
LBB59_1:
	ldr	x0, [sp, #8]                    ; 8-byte Folded Reload
	ldr	x8, [sp, #16]                   ; 8-byte Folded Reload
	ldr	x9, [x8]
	str	x9, [x0]
	ldr	x9, [x8, #40]
	ldr	x10, [x0]
	ldur	x10, [x10, #-24]
	str	x9, [x0, x10]
	ldr	x8, [x8, #48]
	str	x8, [x0, #16]
	ldp	x29, x30, [sp, #64]             ; 16-byte Folded Reload
	add	sp, sp, #80
	ret
LBB59_2:
Ltmp171:
	ldr	x8, [sp, #16]                   ; 8-byte Folded Reload
	mov	x10, x0
	ldr	x0, [sp, #8]                    ; 8-byte Folded Reload
	mov	x9, x1
	str	x10, [sp, #32]
	str	w9, [sp, #28]
	add	x1, x8, #8
Ltmp172:
	bl	__ZNSt3__113basic_istreamIcNS_11char_traitsIcEEED2Ev
Ltmp173:
	b	LBB59_3
LBB59_3:
	b	LBB59_4
LBB59_4:
	ldr	x0, [sp, #32]
	bl	__Unwind_Resume
LBB59_5:
Ltmp174:
	bl	___clang_call_terminate
Lfunc_end11:
	.cfi_endproc
	.section	__TEXT,__gcc_except_tab
	.p2align	2
GCC_except_table59:
Lexception11:
	.byte	255                             ; @LPStart Encoding = omit
	.byte	155                             ; @TType Encoding = indirect pcrel sdata4
	.uleb128 Lttbase10-Lttbaseref10
Lttbaseref10:
	.byte	1                               ; Call site Encoding = uleb128
	.uleb128 Lcst_end11-Lcst_begin11
Lcst_begin11:
	.uleb128 Lfunc_begin11-Lfunc_begin11    ; >> Call Site 1 <<
	.uleb128 Ltmp169-Lfunc_begin11          ;   Call between Lfunc_begin11 and Ltmp169
	.byte	0                               ;     has no landing pad
	.byte	0                               ;   On action: cleanup
	.uleb128 Ltmp169-Lfunc_begin11          ; >> Call Site 2 <<
	.uleb128 Ltmp170-Ltmp169                ;   Call between Ltmp169 and Ltmp170
	.uleb128 Ltmp171-Lfunc_begin11          ;     jumps to Ltmp171
	.byte	0                               ;   On action: cleanup
	.uleb128 Ltmp172-Lfunc_begin11          ; >> Call Site 3 <<
	.uleb128 Ltmp173-Ltmp172                ;   Call between Ltmp172 and Ltmp173
	.uleb128 Ltmp174-Lfunc_begin11          ;     jumps to Ltmp174
	.byte	1                               ;   On action: 1
	.uleb128 Ltmp173-Lfunc_begin11          ; >> Call Site 4 <<
	.uleb128 Lfunc_end11-Ltmp173            ;   Call between Ltmp173 and Lfunc_end11
	.byte	0                               ;     has no landing pad
	.byte	0                               ;   On action: cleanup
Lcst_end11:
	.byte	1                               ; >> Action Record 1 <<
                                        ;   Catch TypeInfo 1
	.byte	0                               ;   No further actions
	.p2align	2
                                        ; >> Catch TypeInfos <<
	.long	0                               ; TypeInfo 1
Lttbase10:
	.p2align	2
                                        ; -- End function
	.section	__TEXT,__text,regular,pure_instructions
	.private_extern	__ZNSt3__18ios_baseC2B6v15006Ev ; -- Begin function _ZNSt3__18ios_baseC2B6v15006Ev
	.globl	__ZNSt3__18ios_baseC2B6v15006Ev
	.weak_def_can_be_hidden	__ZNSt3__18ios_baseC2B6v15006Ev
	.p2align	2
__ZNSt3__18ios_baseC2B6v15006Ev:        ; @_ZNSt3__18ios_baseC2B6v15006Ev
	.cfi_startproc
; %bb.0:
	sub	sp, sp, #16
	.cfi_def_cfa_offset 16
	adrp	x8, __ZTVNSt3__18ios_baseE@GOTPAGE
	ldr	x8, [x8, __ZTVNSt3__18ios_baseE@GOTPAGEOFF]
	add	x8, x8, #16
	str	x0, [sp, #8]
	ldr	x0, [sp, #8]
	str	x8, [x0]
	add	sp, sp, #16
	ret
	.cfi_endproc
                                        ; -- End function
	.private_extern	__ZNSt3__113basic_istreamIcNS_11char_traitsIcEEEC2B6v15006EPNS_15basic_streambufIcS2_EE ; -- Begin function _ZNSt3__113basic_istreamIcNS_11char_traitsIcEEEC2B6v15006EPNS_15basic_streambufIcS2_EE
	.globl	__ZNSt3__113basic_istreamIcNS_11char_traitsIcEEEC2B6v15006EPNS_15basic_streambufIcS2_EE
	.weak_def_can_be_hidden	__ZNSt3__113basic_istreamIcNS_11char_traitsIcEEEC2B6v15006EPNS_15basic_streambufIcS2_EE
	.p2align	2
__ZNSt3__113basic_istreamIcNS_11char_traitsIcEEEC2B6v15006EPNS_15basic_streambufIcS2_EE: ; @_ZNSt3__113basic_istreamIcNS_11char_traitsIcEEEC2B6v15006EPNS_15basic_streambufIcS2_EE
	.cfi_startproc
; %bb.0:
	sub	sp, sp, #48
	.cfi_def_cfa_offset 48
	stp	x29, x30, [sp, #32]             ; 16-byte Folded Spill
	add	x29, sp, #32
	.cfi_def_cfa w29, 16
	.cfi_offset w30, -8
	.cfi_offset w29, -16
	stur	x0, [x29, #-8]
	str	x1, [sp, #16]
	str	x2, [sp, #8]
	ldur	x8, [x29, #-8]
	str	x8, [sp]                        ; 8-byte Folded Spill
	ldr	x9, [sp, #16]
	ldr	x10, [x9]
	str	x10, [x8]
	ldr	x9, [x9, #8]
	ldr	x10, [x8]
	ldur	x10, [x10, #-24]
	str	x9, [x8, x10]
	str	xzr, [x8, #8]
	ldr	x9, [x8]
	ldur	x9, [x9, #-24]
	ldr	x1, [sp, #8]
	add	x0, x8, x9
	bl	__ZNSt3__19basic_iosIcNS_11char_traitsIcEEE4initB6v15006EPNS_15basic_streambufIcS2_EE
	ldr	x0, [sp]                        ; 8-byte Folded Reload
	ldp	x29, x30, [sp, #32]             ; 16-byte Folded Reload
	add	sp, sp, #48
	ret
	.cfi_endproc
                                        ; -- End function
	.private_extern	__ZNSt3__113basic_ostreamIcNS_11char_traitsIcEEEC2B6v15006Ev ; -- Begin function _ZNSt3__113basic_ostreamIcNS_11char_traitsIcEEEC2B6v15006Ev
	.globl	__ZNSt3__113basic_ostreamIcNS_11char_traitsIcEEEC2B6v15006Ev
	.weak_def_can_be_hidden	__ZNSt3__113basic_ostreamIcNS_11char_traitsIcEEEC2B6v15006Ev
	.p2align	2
__ZNSt3__113basic_ostreamIcNS_11char_traitsIcEEEC2B6v15006Ev: ; @_ZNSt3__113basic_ostreamIcNS_11char_traitsIcEEEC2B6v15006Ev
	.cfi_startproc
; %bb.0:
	sub	sp, sp, #16
	.cfi_def_cfa_offset 16
	str	x0, [sp, #8]
	str	x1, [sp]
	ldr	x0, [sp, #8]
	ldr	x8, [sp]
	ldr	x9, [x8]
	str	x9, [x0]
	ldr	x8, [x8, #8]
	ldr	x9, [x0]
	ldur	x9, [x9, #-24]
	str	x8, [x0, x9]
	add	sp, sp, #16
	ret
	.cfi_endproc
                                        ; -- End function
	.private_extern	__ZNSt3__19basic_iosIcNS_11char_traitsIcEEE4initB6v15006EPNS_15basic_streambufIcS2_EE ; -- Begin function _ZNSt3__19basic_iosIcNS_11char_traitsIcEEE4initB6v15006EPNS_15basic_streambufIcS2_EE
	.globl	__ZNSt3__19basic_iosIcNS_11char_traitsIcEEE4initB6v15006EPNS_15basic_streambufIcS2_EE
	.weak_definition	__ZNSt3__19basic_iosIcNS_11char_traitsIcEEE4initB6v15006EPNS_15basic_streambufIcS2_EE
	.p2align	2
__ZNSt3__19basic_iosIcNS_11char_traitsIcEEE4initB6v15006EPNS_15basic_streambufIcS2_EE: ; @_ZNSt3__19basic_iosIcNS_11char_traitsIcEEE4initB6v15006EPNS_15basic_streambufIcS2_EE
	.cfi_startproc
; %bb.0:
	sub	sp, sp, #48
	.cfi_def_cfa_offset 48
	stp	x29, x30, [sp, #32]             ; 16-byte Folded Spill
	add	x29, sp, #32
	.cfi_def_cfa w29, 16
	.cfi_offset w30, -8
	.cfi_offset w29, -16
	stur	x0, [x29, #-8]
	str	x1, [sp, #16]
	ldur	x0, [x29, #-8]
	str	x0, [sp, #8]                    ; 8-byte Folded Spill
	ldr	x1, [sp, #16]
	bl	__ZNSt3__18ios_base4initEPv
	ldr	x8, [sp, #8]                    ; 8-byte Folded Reload
                                        ; kill: def $x9 killed $xzr
	str	xzr, [x8, #136]
	bl	__ZNSt3__111char_traitsIcE3eofEv
	ldr	x8, [sp, #8]                    ; 8-byte Folded Reload
	str	w0, [x8, #144]
	ldp	x29, x30, [sp, #32]             ; 16-byte Folded Reload
	add	sp, sp, #48
	ret
	.cfi_endproc
                                        ; -- End function
	.private_extern	__ZNSt3__112basic_stringIcNS_11char_traitsIcEENS_9allocatorIcEEEC2B6v15006Ev ; -- Begin function _ZNSt3__112basic_stringIcNS_11char_traitsIcEENS_9allocatorIcEEEC2B6v15006Ev
	.globl	__ZNSt3__112basic_stringIcNS_11char_traitsIcEENS_9allocatorIcEEEC2B6v15006Ev
	.weak_def_can_be_hidden	__ZNSt3__112basic_stringIcNS_11char_traitsIcEENS_9allocatorIcEEEC2B6v15006Ev
	.p2align	2
__ZNSt3__112basic_stringIcNS_11char_traitsIcEENS_9allocatorIcEEEC2B6v15006Ev: ; @_ZNSt3__112basic_stringIcNS_11char_traitsIcEENS_9allocatorIcEEEC2B6v15006Ev
	.cfi_startproc
; %bb.0:
	sub	sp, sp, #48
	.cfi_def_cfa_offset 48
	stp	x29, x30, [sp, #32]             ; 16-byte Folded Spill
	add	x29, sp, #32
	.cfi_def_cfa w29, 16
	.cfi_offset w30, -8
	.cfi_offset w29, -16
	stur	x0, [x29, #-8]
	ldur	x0, [x29, #-8]
	str	x0, [sp, #8]                    ; 8-byte Folded Spill
	sub	x1, x29, #9
	sub	x2, x29, #10
	bl	__ZNSt3__117__compressed_pairINS_12basic_stringIcNS_11char_traitsIcEENS_9allocatorIcEEE5__repES5_EC1B6v15006INS_18__default_init_tagESA_EEOT_OT0_
	ldr	x0, [sp, #8]                    ; 8-byte Folded Reload
	bl	__ZNSt3__119__debug_db_insert_cB6v15006INS_12basic_stringIcNS_11char_traitsIcEENS_9allocatorIcEEEEEEvPT_
	ldr	x0, [sp, #8]                    ; 8-byte Folded Reload
	bl	__ZNSt3__112basic_stringIcNS_11char_traitsIcEENS_9allocatorIcEEE14__default_initB6v15006Ev
	ldr	x0, [sp, #8]                    ; 8-byte Folded Reload
	ldp	x29, x30, [sp, #32]             ; 16-byte Folded Reload
	add	sp, sp, #48
	ret
	.cfi_endproc
                                        ; -- End function
	.private_extern	__ZNSt3__112basic_stringIcNS_11char_traitsIcEENS_9allocatorIcEEE14__default_initB6v15006Ev ; -- Begin function _ZNSt3__112basic_stringIcNS_11char_traitsIcEENS_9allocatorIcEEE14__default_initB6v15006Ev
	.globl	__ZNSt3__112basic_stringIcNS_11char_traitsIcEENS_9allocatorIcEEE14__default_initB6v15006Ev
	.weak_definition	__ZNSt3__112basic_stringIcNS_11char_traitsIcEENS_9allocatorIcEEE14__default_initB6v15006Ev
	.p2align	2
__ZNSt3__112basic_stringIcNS_11char_traitsIcEENS_9allocatorIcEEE14__default_initB6v15006Ev: ; @_ZNSt3__112basic_stringIcNS_11char_traitsIcEENS_9allocatorIcEEE14__default_initB6v15006Ev
	.cfi_startproc
; %bb.0:
	sub	sp, sp, #64
	.cfi_def_cfa_offset 64
	stp	x29, x30, [sp, #48]             ; 16-byte Folded Spill
	add	x29, sp, #48
	.cfi_def_cfa w29, 16
	.cfi_offset w30, -8
	.cfi_offset w29, -16
	stur	x0, [x29, #-8]
	ldur	x0, [x29, #-8]
	str	x0, [sp, #16]                   ; 8-byte Folded Spill
	bl	__ZNSt3__112basic_stringIcNS_11char_traitsIcEENS_9allocatorIcEEE6__zeroB6v15006Ev
	bl	__ZNSt3__130__libcpp_is_constant_evaluatedEv
	tbz	w0, #0, LBB65_2
	b	LBB65_1
LBB65_1:
	mov	x0, #0
	str	x0, [sp, #8]                    ; 8-byte Folded Spill
	bl	__ZNSt3__112basic_stringIcNS_11char_traitsIcEENS_9allocatorIcEEE11__recommendB6v15006Em
	mov	x8, x0
	ldr	x0, [sp, #16]                   ; 8-byte Folded Reload
	add	x8, x8, #1
	stur	x8, [x29, #-16]
	bl	__ZNSt3__112basic_stringIcNS_11char_traitsIcEENS_9allocatorIcEEE7__allocB6v15006Ev
	ldur	x1, [x29, #-16]
	bl	__ZNSt3__116allocator_traitsINS_9allocatorIcEEE8allocateB6v15006ERS2_m
	str	x0, [sp, #24]
	ldr	x0, [sp, #24]
	ldur	x1, [x29, #-16]
	bl	__ZNSt3__112basic_stringIcNS_11char_traitsIcEENS_9allocatorIcEEE16__begin_lifetimeB6v15006EPcm
	ldr	x0, [sp, #16]                   ; 8-byte Folded Reload
	ldr	x1, [sp, #24]
	bl	__ZNSt3__112basic_stringIcNS_11char_traitsIcEENS_9allocatorIcEEE18__set_long_pointerB6v15006EPc
	ldr	x0, [sp, #16]                   ; 8-byte Folded Reload
	ldur	x1, [x29, #-16]
	bl	__ZNSt3__112basic_stringIcNS_11char_traitsIcEENS_9allocatorIcEEE14__set_long_capB6v15006Em
	ldr	x0, [sp, #16]                   ; 8-byte Folded Reload
	ldr	x1, [sp, #8]                    ; 8-byte Folded Reload
	bl	__ZNSt3__112basic_stringIcNS_11char_traitsIcEENS_9allocatorIcEEE15__set_long_sizeB6v15006Em
	b	LBB65_2
LBB65_2:
	ldp	x29, x30, [sp, #48]             ; 16-byte Folded Reload
	add	sp, sp, #64
	ret
	.cfi_endproc
                                        ; -- End function
	.private_extern	__ZNSt3__112basic_stringIcNS_11char_traitsIcEENS_9allocatorIcEEE6__zeroB6v15006Ev ; -- Begin function _ZNSt3__112basic_stringIcNS_11char_traitsIcEENS_9allocatorIcEEE6__zeroB6v15006Ev
	.globl	__ZNSt3__112basic_stringIcNS_11char_traitsIcEENS_9allocatorIcEEE6__zeroB6v15006Ev
	.weak_definition	__ZNSt3__112basic_stringIcNS_11char_traitsIcEENS_9allocatorIcEEE6__zeroB6v15006Ev
	.p2align	2
__ZNSt3__112basic_stringIcNS_11char_traitsIcEENS_9allocatorIcEEE6__zeroB6v15006Ev: ; @_ZNSt3__112basic_stringIcNS_11char_traitsIcEENS_9allocatorIcEEE6__zeroB6v15006Ev
	.cfi_startproc
; %bb.0:
	sub	sp, sp, #48
	.cfi_def_cfa_offset 48
	stp	x29, x30, [sp, #32]             ; 16-byte Folded Spill
	add	x29, sp, #32
	.cfi_def_cfa w29, 16
	.cfi_offset w30, -8
	.cfi_offset w29, -16
	stur	x0, [x29, #-8]
	ldur	x0, [x29, #-8]
	str	xzr, [sp]
	str	xzr, [sp, #8]
	str	xzr, [sp, #16]
	bl	__ZNSt3__117__compressed_pairINS_12basic_stringIcNS_11char_traitsIcEENS_9allocatorIcEEE5__repES5_E5firstB6v15006Ev
	ldr	q0, [sp]
	str	q0, [x0]
	ldr	x8, [sp, #16]
	str	x8, [x0, #16]
	ldp	x29, x30, [sp, #32]             ; 16-byte Folded Reload
	add	sp, sp, #48
	ret
	.cfi_endproc
                                        ; -- End function
	.private_extern	__ZNSt3__112basic_stringIcNS_11char_traitsIcEENS_9allocatorIcEEE11__recommendB6v15006Em ; -- Begin function _ZNSt3__112basic_stringIcNS_11char_traitsIcEENS_9allocatorIcEEE11__recommendB6v15006Em
	.globl	__ZNSt3__112basic_stringIcNS_11char_traitsIcEENS_9allocatorIcEEE11__recommendB6v15006Em
	.weak_definition	__ZNSt3__112basic_stringIcNS_11char_traitsIcEENS_9allocatorIcEEE11__recommendB6v15006Em
	.p2align	2
__ZNSt3__112basic_stringIcNS_11char_traitsIcEENS_9allocatorIcEEE11__recommendB6v15006Em: ; @_ZNSt3__112basic_stringIcNS_11char_traitsIcEENS_9allocatorIcEEE11__recommendB6v15006Em
	.cfi_startproc
; %bb.0:
	sub	sp, sp, #48
	.cfi_def_cfa_offset 48
	stp	x29, x30, [sp, #32]             ; 16-byte Folded Spill
	add	x29, sp, #32
	.cfi_def_cfa w29, 16
	.cfi_offset w30, -8
	.cfi_offset w29, -16
	str	x0, [sp, #16]
	ldr	x8, [sp, #16]
	subs	x8, x8, #23
	cset	w8, hs
	tbnz	w8, #0, LBB67_4
	b	LBB67_1
LBB67_1:
	bl	__ZNSt3__130__libcpp_is_constant_evaluatedEv
	tbz	w0, #0, LBB67_3
	b	LBB67_2
LBB67_2:
	mov	x8, #23
	stur	x8, [x29, #-8]
	b	LBB67_7
LBB67_3:
	mov	x8, #22
	stur	x8, [x29, #-8]
	b	LBB67_7
LBB67_4:
	ldr	x8, [sp, #16]
	add	x0, x8, #1
	bl	__ZNSt3__112basic_stringIcNS_11char_traitsIcEENS_9allocatorIcEEE10__align_itB6v15006ILm16EEEmm
	subs	x8, x0, #1
	str	x8, [sp, #8]
	ldr	x8, [sp, #8]
	subs	x8, x8, #23
	cset	w8, ne
	tbnz	w8, #0, LBB67_6
	b	LBB67_5
LBB67_5:
	ldr	x8, [sp, #8]
	add	x8, x8, #1
	str	x8, [sp, #8]
	b	LBB67_6
LBB67_6:
	ldr	x8, [sp, #8]
	stur	x8, [x29, #-8]
	b	LBB67_7
LBB67_7:
	ldur	x0, [x29, #-8]
	ldp	x29, x30, [sp, #32]             ; 16-byte Folded Reload
	add	sp, sp, #48
	ret
	.cfi_endproc
                                        ; -- End function
	.private_extern	__ZNSt3__116allocator_traitsINS_9allocatorIcEEE8allocateB6v15006ERS2_m ; -- Begin function _ZNSt3__116allocator_traitsINS_9allocatorIcEEE8allocateB6v15006ERS2_m
	.globl	__ZNSt3__116allocator_traitsINS_9allocatorIcEEE8allocateB6v15006ERS2_m
	.weak_definition	__ZNSt3__116allocator_traitsINS_9allocatorIcEEE8allocateB6v15006ERS2_m
	.p2align	2
__ZNSt3__116allocator_traitsINS_9allocatorIcEEE8allocateB6v15006ERS2_m: ; @_ZNSt3__116allocator_traitsINS_9allocatorIcEEE8allocateB6v15006ERS2_m
	.cfi_startproc
; %bb.0:
	sub	sp, sp, #32
	.cfi_def_cfa_offset 32
	stp	x29, x30, [sp, #16]             ; 16-byte Folded Spill
	add	x29, sp, #16
	.cfi_def_cfa w29, 16
	.cfi_offset w30, -8
	.cfi_offset w29, -16
	str	x0, [sp, #8]
	str	x1, [sp]
	ldr	x0, [sp, #8]
	ldr	x1, [sp]
	bl	__ZNSt3__19allocatorIcE8allocateB6v15006Em
	ldp	x29, x30, [sp, #16]             ; 16-byte Folded Reload
	add	sp, sp, #32
	ret
	.cfi_endproc
                                        ; -- End function
	.private_extern	__ZNSt3__112basic_stringIcNS_11char_traitsIcEENS_9allocatorIcEEE7__allocB6v15006Ev ; -- Begin function _ZNSt3__112basic_stringIcNS_11char_traitsIcEENS_9allocatorIcEEE7__allocB6v15006Ev
	.globl	__ZNSt3__112basic_stringIcNS_11char_traitsIcEENS_9allocatorIcEEE7__allocB6v15006Ev
	.weak_definition	__ZNSt3__112basic_stringIcNS_11char_traitsIcEENS_9allocatorIcEEE7__allocB6v15006Ev
	.p2align	2
__ZNSt3__112basic_stringIcNS_11char_traitsIcEENS_9allocatorIcEEE7__allocB6v15006Ev: ; @_ZNSt3__112basic_stringIcNS_11char_traitsIcEENS_9allocatorIcEEE7__allocB6v15006Ev
	.cfi_startproc
; %bb.0:
	sub	sp, sp, #32
	.cfi_def_cfa_offset 32
	stp	x29, x30, [sp, #16]             ; 16-byte Folded Spill
	add	x29, sp, #16
	.cfi_def_cfa w29, 16
	.cfi_offset w30, -8
	.cfi_offset w29, -16
	str	x0, [sp, #8]
	ldr	x0, [sp, #8]
	bl	__ZNSt3__117__compressed_pairINS_12basic_stringIcNS_11char_traitsIcEENS_9allocatorIcEEE5__repES5_E6secondB6v15006Ev
	ldp	x29, x30, [sp, #16]             ; 16-byte Folded Reload
	add	sp, sp, #32
	ret
	.cfi_endproc
                                        ; -- End function
	.private_extern	__ZNSt3__112basic_stringIcNS_11char_traitsIcEENS_9allocatorIcEEE16__begin_lifetimeB6v15006EPcm ; -- Begin function _ZNSt3__112basic_stringIcNS_11char_traitsIcEENS_9allocatorIcEEE16__begin_lifetimeB6v15006EPcm
	.globl	__ZNSt3__112basic_stringIcNS_11char_traitsIcEENS_9allocatorIcEEE16__begin_lifetimeB6v15006EPcm
	.weak_definition	__ZNSt3__112basic_stringIcNS_11char_traitsIcEENS_9allocatorIcEEE16__begin_lifetimeB6v15006EPcm
	.p2align	2
__ZNSt3__112basic_stringIcNS_11char_traitsIcEENS_9allocatorIcEEE16__begin_lifetimeB6v15006EPcm: ; @_ZNSt3__112basic_stringIcNS_11char_traitsIcEENS_9allocatorIcEEE16__begin_lifetimeB6v15006EPcm
	.cfi_startproc
; %bb.0:
	sub	sp, sp, #16
	.cfi_def_cfa_offset 16
	str	x0, [sp, #8]
	str	x1, [sp]
	add	sp, sp, #16
	ret
	.cfi_endproc
                                        ; -- End function
	.private_extern	__ZNSt3__112basic_stringIcNS_11char_traitsIcEENS_9allocatorIcEEE18__set_long_pointerB6v15006EPc ; -- Begin function _ZNSt3__112basic_stringIcNS_11char_traitsIcEENS_9allocatorIcEEE18__set_long_pointerB6v15006EPc
	.globl	__ZNSt3__112basic_stringIcNS_11char_traitsIcEENS_9allocatorIcEEE18__set_long_pointerB6v15006EPc
	.weak_definition	__ZNSt3__112basic_stringIcNS_11char_traitsIcEENS_9allocatorIcEEE18__set_long_pointerB6v15006EPc
	.p2align	2
__ZNSt3__112basic_stringIcNS_11char_traitsIcEENS_9allocatorIcEEE18__set_long_pointerB6v15006EPc: ; @_ZNSt3__112basic_stringIcNS_11char_traitsIcEENS_9allocatorIcEEE18__set_long_pointerB6v15006EPc
	.cfi_startproc
; %bb.0:
	sub	sp, sp, #48
	.cfi_def_cfa_offset 48
	stp	x29, x30, [sp, #32]             ; 16-byte Folded Spill
	add	x29, sp, #32
	.cfi_def_cfa w29, 16
	.cfi_offset w30, -8
	.cfi_offset w29, -16
	stur	x0, [x29, #-8]
	str	x1, [sp, #16]
	ldur	x0, [x29, #-8]
	ldr	x8, [sp, #16]
	str	x8, [sp, #8]                    ; 8-byte Folded Spill
	bl	__ZNSt3__117__compressed_pairINS_12basic_stringIcNS_11char_traitsIcEENS_9allocatorIcEEE5__repES5_E5firstB6v15006Ev
	ldr	x8, [sp, #8]                    ; 8-byte Folded Reload
	str	x8, [x0]
	ldp	x29, x30, [sp, #32]             ; 16-byte Folded Reload
	add	sp, sp, #48
	ret
	.cfi_endproc
                                        ; -- End function
	.private_extern	__ZNSt3__112basic_stringIcNS_11char_traitsIcEENS_9allocatorIcEEE14__set_long_capB6v15006Em ; -- Begin function _ZNSt3__112basic_stringIcNS_11char_traitsIcEENS_9allocatorIcEEE14__set_long_capB6v15006Em
	.globl	__ZNSt3__112basic_stringIcNS_11char_traitsIcEENS_9allocatorIcEEE14__set_long_capB6v15006Em
	.weak_definition	__ZNSt3__112basic_stringIcNS_11char_traitsIcEENS_9allocatorIcEEE14__set_long_capB6v15006Em
	.p2align	2
__ZNSt3__112basic_stringIcNS_11char_traitsIcEENS_9allocatorIcEEE14__set_long_capB6v15006Em: ; @_ZNSt3__112basic_stringIcNS_11char_traitsIcEENS_9allocatorIcEEE14__set_long_capB6v15006Em
	.cfi_startproc
; %bb.0:
	sub	sp, sp, #48
	.cfi_def_cfa_offset 48
	stp	x29, x30, [sp, #32]             ; 16-byte Folded Spill
	add	x29, sp, #32
	.cfi_def_cfa w29, 16
	.cfi_offset w30, -8
	.cfi_offset w29, -16
	stur	x0, [x29, #-8]
	str	x1, [sp, #16]
	ldur	x0, [x29, #-8]
	str	x0, [sp, #8]                    ; 8-byte Folded Spill
	ldr	x8, [sp, #16]
	mov	x9, #1
	udiv	x8, x8, x9
	str	x8, [sp]                        ; 8-byte Folded Spill
	bl	__ZNSt3__117__compressed_pairINS_12basic_stringIcNS_11char_traitsIcEENS_9allocatorIcEEE5__repES5_E5firstB6v15006Ev
	ldr	x10, [sp]                       ; 8-byte Folded Reload
	mov	x9, x0
	ldr	x0, [sp, #8]                    ; 8-byte Folded Reload
	ldr	x8, [x9, #16]
	and	x10, x10, #0x7fffffffffffffff
	and	x8, x8, #0x8000000000000000
	orr	x8, x8, x10
	str	x8, [x9, #16]
	bl	__ZNSt3__117__compressed_pairINS_12basic_stringIcNS_11char_traitsIcEENS_9allocatorIcEEE5__repES5_E5firstB6v15006Ev
	ldr	x8, [x0, #16]
	and	x8, x8, #0x7fffffffffffffff
	orr	x8, x8, #0x8000000000000000
	str	x8, [x0, #16]
	ldp	x29, x30, [sp, #32]             ; 16-byte Folded Reload
	add	sp, sp, #48
	ret
	.cfi_endproc
                                        ; -- End function
	.private_extern	__ZNSt3__112basic_stringIcNS_11char_traitsIcEENS_9allocatorIcEEE15__set_long_sizeB6v15006Em ; -- Begin function _ZNSt3__112basic_stringIcNS_11char_traitsIcEENS_9allocatorIcEEE15__set_long_sizeB6v15006Em
	.globl	__ZNSt3__112basic_stringIcNS_11char_traitsIcEENS_9allocatorIcEEE15__set_long_sizeB6v15006Em
	.weak_definition	__ZNSt3__112basic_stringIcNS_11char_traitsIcEENS_9allocatorIcEEE15__set_long_sizeB6v15006Em
	.p2align	2
__ZNSt3__112basic_stringIcNS_11char_traitsIcEENS_9allocatorIcEEE15__set_long_sizeB6v15006Em: ; @_ZNSt3__112basic_stringIcNS_11char_traitsIcEENS_9allocatorIcEEE15__set_long_sizeB6v15006Em
	.cfi_startproc
; %bb.0:
	sub	sp, sp, #48
	.cfi_def_cfa_offset 48
	stp	x29, x30, [sp, #32]             ; 16-byte Folded Spill
	add	x29, sp, #32
	.cfi_def_cfa w29, 16
	.cfi_offset w30, -8
	.cfi_offset w29, -16
	stur	x0, [x29, #-8]
	str	x1, [sp, #16]
	ldur	x0, [x29, #-8]
	ldr	x8, [sp, #16]
	str	x8, [sp, #8]                    ; 8-byte Folded Spill
	bl	__ZNSt3__117__compressed_pairINS_12basic_stringIcNS_11char_traitsIcEENS_9allocatorIcEEE5__repES5_E5firstB6v15006Ev
	ldr	x8, [sp, #8]                    ; 8-byte Folded Reload
	str	x8, [x0, #8]
	ldp	x29, x30, [sp, #32]             ; 16-byte Folded Reload
	add	sp, sp, #48
	ret
	.cfi_endproc
                                        ; -- End function
	.private_extern	__ZNSt3__117__compressed_pairINS_12basic_stringIcNS_11char_traitsIcEENS_9allocatorIcEEE5__repES5_E5firstB6v15006Ev ; -- Begin function _ZNSt3__117__compressed_pairINS_12basic_stringIcNS_11char_traitsIcEENS_9allocatorIcEEE5__repES5_E5firstB6v15006Ev
	.globl	__ZNSt3__117__compressed_pairINS_12basic_stringIcNS_11char_traitsIcEENS_9allocatorIcEEE5__repES5_E5firstB6v15006Ev
	.weak_definition	__ZNSt3__117__compressed_pairINS_12basic_stringIcNS_11char_traitsIcEENS_9allocatorIcEEE5__repES5_E5firstB6v15006Ev
	.p2align	2
__ZNSt3__117__compressed_pairINS_12basic_stringIcNS_11char_traitsIcEENS_9allocatorIcEEE5__repES5_E5firstB6v15006Ev: ; @_ZNSt3__117__compressed_pairINS_12basic_stringIcNS_11char_traitsIcEENS_9allocatorIcEEE5__repES5_E5firstB6v15006Ev
	.cfi_startproc
; %bb.0:
	sub	sp, sp, #32
	.cfi_def_cfa_offset 32
	stp	x29, x30, [sp, #16]             ; 16-byte Folded Spill
	add	x29, sp, #16
	.cfi_def_cfa w29, 16
	.cfi_offset w30, -8
	.cfi_offset w29, -16
	str	x0, [sp, #8]
	ldr	x0, [sp, #8]
	bl	__ZNSt3__122__compressed_pair_elemINS_12basic_stringIcNS_11char_traitsIcEENS_9allocatorIcEEE5__repELi0ELb0EE5__getB6v15006Ev
	ldp	x29, x30, [sp, #16]             ; 16-byte Folded Reload
	add	sp, sp, #32
	ret
	.cfi_endproc
                                        ; -- End function
	.private_extern	__ZNSt3__122__compressed_pair_elemINS_12basic_stringIcNS_11char_traitsIcEENS_9allocatorIcEEE5__repELi0ELb0EE5__getB6v15006Ev ; -- Begin function _ZNSt3__122__compressed_pair_elemINS_12basic_stringIcNS_11char_traitsIcEENS_9allocatorIcEEE5__repELi0ELb0EE5__getB6v15006Ev
	.globl	__ZNSt3__122__compressed_pair_elemINS_12basic_stringIcNS_11char_traitsIcEENS_9allocatorIcEEE5__repELi0ELb0EE5__getB6v15006Ev
	.weak_definition	__ZNSt3__122__compressed_pair_elemINS_12basic_stringIcNS_11char_traitsIcEENS_9allocatorIcEEE5__repELi0ELb0EE5__getB6v15006Ev
	.p2align	2
__ZNSt3__122__compressed_pair_elemINS_12basic_stringIcNS_11char_traitsIcEENS_9allocatorIcEEE5__repELi0ELb0EE5__getB6v15006Ev: ; @_ZNSt3__122__compressed_pair_elemINS_12basic_stringIcNS_11char_traitsIcEENS_9allocatorIcEEE5__repELi0ELb0EE5__getB6v15006Ev
	.cfi_startproc
; %bb.0:
	sub	sp, sp, #16
	.cfi_def_cfa_offset 16
	str	x0, [sp, #8]
	ldr	x0, [sp, #8]
	add	sp, sp, #16
	ret
	.cfi_endproc
                                        ; -- End function
	.globl	__ZNSt3__112basic_stringIcNS_11char_traitsIcEENS_9allocatorIcEEE10__align_itB6v15006ILm16EEEmm ; -- Begin function _ZNSt3__112basic_stringIcNS_11char_traitsIcEENS_9allocatorIcEEE10__align_itB6v15006ILm16EEEmm
	.weak_definition	__ZNSt3__112basic_stringIcNS_11char_traitsIcEENS_9allocatorIcEEE10__align_itB6v15006ILm16EEEmm
	.p2align	2
__ZNSt3__112basic_stringIcNS_11char_traitsIcEENS_9allocatorIcEEE10__align_itB6v15006ILm16EEEmm: ; @_ZNSt3__112basic_stringIcNS_11char_traitsIcEENS_9allocatorIcEEE10__align_itB6v15006ILm16EEEmm
	.cfi_startproc
; %bb.0:
	sub	sp, sp, #16
	.cfi_def_cfa_offset 16
	str	x0, [sp, #8]
	ldr	x8, [sp, #8]
	add	x8, x8, #15
	and	x0, x8, #0xfffffffffffffff0
	add	sp, sp, #16
	ret
	.cfi_endproc
                                        ; -- End function
	.private_extern	__ZNSt3__19allocatorIcE8allocateB6v15006Em ; -- Begin function _ZNSt3__19allocatorIcE8allocateB6v15006Em
	.globl	__ZNSt3__19allocatorIcE8allocateB6v15006Em
	.weak_definition	__ZNSt3__19allocatorIcE8allocateB6v15006Em
	.p2align	2
__ZNSt3__19allocatorIcE8allocateB6v15006Em: ; @_ZNSt3__19allocatorIcE8allocateB6v15006Em
	.cfi_startproc
; %bb.0:
	sub	sp, sp, #48
	.cfi_def_cfa_offset 48
	stp	x29, x30, [sp, #32]             ; 16-byte Folded Spill
	add	x29, sp, #32
	.cfi_def_cfa w29, 16
	.cfi_offset w30, -8
	.cfi_offset w29, -16
	str	x0, [sp, #16]
	str	x1, [sp, #8]
	ldr	x0, [sp, #16]
	ldr	x8, [sp, #8]
	str	x8, [sp]                        ; 8-byte Folded Spill
	bl	__ZNSt3__116allocator_traitsINS_9allocatorIcEEE8max_sizeB6v15006IS2_vEEmRKS2_
	ldr	x8, [sp]                        ; 8-byte Folded Reload
	subs	x8, x8, x0
	cset	w8, ls
	tbnz	w8, #0, LBB77_2
	b	LBB77_1
LBB77_1:
	bl	__ZSt28__throw_bad_array_new_lengthB6v15006v
LBB77_2:
	bl	__ZNSt3__130__libcpp_is_constant_evaluatedEv
	tbz	w0, #0, LBB77_4
	b	LBB77_3
LBB77_3:
	ldr	x8, [sp, #8]
	lsr	x0, x8, #0
	bl	__Znwm
	stur	x0, [x29, #-8]
	b	LBB77_5
LBB77_4:
	ldr	x8, [sp, #8]
	lsr	x0, x8, #0
	mov	x1, #1
	bl	__ZNSt3__117__libcpp_allocateB6v15006Emm
	stur	x0, [x29, #-8]
	b	LBB77_5
LBB77_5:
	ldur	x0, [x29, #-8]
	ldp	x29, x30, [sp, #32]             ; 16-byte Folded Reload
	add	sp, sp, #48
	ret
	.cfi_endproc
                                        ; -- End function
	.globl	__ZNSt3__116allocator_traitsINS_9allocatorIcEEE8max_sizeB6v15006IS2_vEEmRKS2_ ; -- Begin function _ZNSt3__116allocator_traitsINS_9allocatorIcEEE8max_sizeB6v15006IS2_vEEmRKS2_
	.weak_definition	__ZNSt3__116allocator_traitsINS_9allocatorIcEEE8max_sizeB6v15006IS2_vEEmRKS2_
	.p2align	2
__ZNSt3__116allocator_traitsINS_9allocatorIcEEE8max_sizeB6v15006IS2_vEEmRKS2_: ; @_ZNSt3__116allocator_traitsINS_9allocatorIcEEE8max_sizeB6v15006IS2_vEEmRKS2_
	.cfi_startproc
; %bb.0:
	sub	sp, sp, #32
	.cfi_def_cfa_offset 32
	stp	x29, x30, [sp, #16]             ; 16-byte Folded Spill
	add	x29, sp, #16
	.cfi_def_cfa w29, 16
	.cfi_offset w30, -8
	.cfi_offset w29, -16
	str	x0, [sp, #8]
	ldr	x0, [sp, #8]
	bl	__ZNKSt3__19allocatorIcE8max_sizeB6v15006Ev
	ldp	x29, x30, [sp, #16]             ; 16-byte Folded Reload
	add	sp, sp, #32
	ret
	.cfi_endproc
                                        ; -- End function
	.private_extern	__ZSt28__throw_bad_array_new_lengthB6v15006v ; -- Begin function _ZSt28__throw_bad_array_new_lengthB6v15006v
	.globl	__ZSt28__throw_bad_array_new_lengthB6v15006v
	.weak_definition	__ZSt28__throw_bad_array_new_lengthB6v15006v
	.p2align	2
__ZSt28__throw_bad_array_new_lengthB6v15006v: ; @_ZSt28__throw_bad_array_new_lengthB6v15006v
	.cfi_startproc
; %bb.0:
	sub	sp, sp, #32
	.cfi_def_cfa_offset 32
	stp	x29, x30, [sp, #16]             ; 16-byte Folded Spill
	add	x29, sp, #16
	.cfi_def_cfa w29, 16
	.cfi_offset w30, -8
	.cfi_offset w29, -16
	mov	x0, #8
	bl	___cxa_allocate_exception
	str	x0, [sp, #8]                    ; 8-byte Folded Spill
	bl	__ZNSt20bad_array_new_lengthC1Ev
	ldr	x0, [sp, #8]                    ; 8-byte Folded Reload
	adrp	x1, __ZTISt20bad_array_new_length@GOTPAGE
	ldr	x1, [x1, __ZTISt20bad_array_new_length@GOTPAGEOFF]
	adrp	x2, __ZNSt20bad_array_new_lengthD1Ev@GOTPAGE
	ldr	x2, [x2, __ZNSt20bad_array_new_lengthD1Ev@GOTPAGEOFF]
	bl	___cxa_throw
	.cfi_endproc
                                        ; -- End function
	.private_extern	__ZNSt3__117__libcpp_allocateB6v15006Emm ; -- Begin function _ZNSt3__117__libcpp_allocateB6v15006Emm
	.globl	__ZNSt3__117__libcpp_allocateB6v15006Emm
	.weak_definition	__ZNSt3__117__libcpp_allocateB6v15006Emm
	.p2align	2
__ZNSt3__117__libcpp_allocateB6v15006Emm: ; @_ZNSt3__117__libcpp_allocateB6v15006Emm
	.cfi_startproc
; %bb.0:
	sub	sp, sp, #32
	.cfi_def_cfa_offset 32
	stp	x29, x30, [sp, #16]             ; 16-byte Folded Spill
	add	x29, sp, #16
	.cfi_def_cfa w29, 16
	.cfi_offset w30, -8
	.cfi_offset w29, -16
	str	x0, [sp, #8]
	str	x1, [sp]
	ldr	x0, [sp, #8]
	bl	__ZNSt3__121__libcpp_operator_newB6v15006IJmEEEPvDpT_
	ldp	x29, x30, [sp, #16]             ; 16-byte Folded Reload
	add	sp, sp, #32
	ret
	.cfi_endproc
                                        ; -- End function
	.private_extern	__ZNKSt3__19allocatorIcE8max_sizeB6v15006Ev ; -- Begin function _ZNKSt3__19allocatorIcE8max_sizeB6v15006Ev
	.globl	__ZNKSt3__19allocatorIcE8max_sizeB6v15006Ev
	.weak_definition	__ZNKSt3__19allocatorIcE8max_sizeB6v15006Ev
	.p2align	2
__ZNKSt3__19allocatorIcE8max_sizeB6v15006Ev: ; @_ZNKSt3__19allocatorIcE8max_sizeB6v15006Ev
	.cfi_startproc
; %bb.0:
	sub	sp, sp, #16
	.cfi_def_cfa_offset 16
	str	x0, [sp, #8]
	mov	x0, #-1
	add	sp, sp, #16
	ret
	.cfi_endproc
                                        ; -- End function
	.private_extern	__ZNSt3__121__libcpp_operator_newB6v15006IJmEEEPvDpT_ ; -- Begin function _ZNSt3__121__libcpp_operator_newB6v15006IJmEEEPvDpT_
	.globl	__ZNSt3__121__libcpp_operator_newB6v15006IJmEEEPvDpT_
	.weak_definition	__ZNSt3__121__libcpp_operator_newB6v15006IJmEEEPvDpT_
	.p2align	2
__ZNSt3__121__libcpp_operator_newB6v15006IJmEEEPvDpT_: ; @_ZNSt3__121__libcpp_operator_newB6v15006IJmEEEPvDpT_
	.cfi_startproc
; %bb.0:
	sub	sp, sp, #32
	.cfi_def_cfa_offset 32
	stp	x29, x30, [sp, #16]             ; 16-byte Folded Spill
	add	x29, sp, #16
	.cfi_def_cfa w29, 16
	.cfi_offset w30, -8
	.cfi_offset w29, -16
	str	x0, [sp, #8]
	ldr	x0, [sp, #8]
	bl	__Znwm
	ldp	x29, x30, [sp, #16]             ; 16-byte Folded Reload
	add	sp, sp, #32
	ret
	.cfi_endproc
                                        ; -- End function
	.private_extern	__ZNSt3__117__compressed_pairINS_12basic_stringIcNS_11char_traitsIcEENS_9allocatorIcEEE5__repES5_E6secondB6v15006Ev ; -- Begin function _ZNSt3__117__compressed_pairINS_12basic_stringIcNS_11char_traitsIcEENS_9allocatorIcEEE5__repES5_E6secondB6v15006Ev
	.globl	__ZNSt3__117__compressed_pairINS_12basic_stringIcNS_11char_traitsIcEENS_9allocatorIcEEE5__repES5_E6secondB6v15006Ev
	.weak_definition	__ZNSt3__117__compressed_pairINS_12basic_stringIcNS_11char_traitsIcEENS_9allocatorIcEEE5__repES5_E6secondB6v15006Ev
	.p2align	2
__ZNSt3__117__compressed_pairINS_12basic_stringIcNS_11char_traitsIcEENS_9allocatorIcEEE5__repES5_E6secondB6v15006Ev: ; @_ZNSt3__117__compressed_pairINS_12basic_stringIcNS_11char_traitsIcEENS_9allocatorIcEEE5__repES5_E6secondB6v15006Ev
	.cfi_startproc
; %bb.0:
	sub	sp, sp, #32
	.cfi_def_cfa_offset 32
	stp	x29, x30, [sp, #16]             ; 16-byte Folded Spill
	add	x29, sp, #16
	.cfi_def_cfa w29, 16
	.cfi_offset w30, -8
	.cfi_offset w29, -16
	str	x0, [sp, #8]
	ldr	x0, [sp, #8]
	bl	__ZNSt3__122__compressed_pair_elemINS_9allocatorIcEELi1ELb1EE5__getB6v15006Ev
	ldp	x29, x30, [sp, #16]             ; 16-byte Folded Reload
	add	sp, sp, #32
	ret
	.cfi_endproc
                                        ; -- End function
	.private_extern	__ZNSt3__122__compressed_pair_elemINS_9allocatorIcEELi1ELb1EE5__getB6v15006Ev ; -- Begin function _ZNSt3__122__compressed_pair_elemINS_9allocatorIcEELi1ELb1EE5__getB6v15006Ev
	.globl	__ZNSt3__122__compressed_pair_elemINS_9allocatorIcEELi1ELb1EE5__getB6v15006Ev
	.weak_definition	__ZNSt3__122__compressed_pair_elemINS_9allocatorIcEELi1ELb1EE5__getB6v15006Ev
	.p2align	2
__ZNSt3__122__compressed_pair_elemINS_9allocatorIcEELi1ELb1EE5__getB6v15006Ev: ; @_ZNSt3__122__compressed_pair_elemINS_9allocatorIcEELi1ELb1EE5__getB6v15006Ev
	.cfi_startproc
; %bb.0:
	sub	sp, sp, #16
	.cfi_def_cfa_offset 16
	str	x0, [sp, #8]
	ldr	x0, [sp, #8]
	add	sp, sp, #16
	ret
	.cfi_endproc
                                        ; -- End function
	.private_extern	__ZNKSt3__113basic_istreamIcNS_11char_traitsIcEEE6sentrycvbB6v15006Ev ; -- Begin function _ZNKSt3__113basic_istreamIcNS_11char_traitsIcEEE6sentrycvbB6v15006Ev
	.globl	__ZNKSt3__113basic_istreamIcNS_11char_traitsIcEEE6sentrycvbB6v15006Ev
	.weak_definition	__ZNKSt3__113basic_istreamIcNS_11char_traitsIcEEE6sentrycvbB6v15006Ev
	.p2align	2
__ZNKSt3__113basic_istreamIcNS_11char_traitsIcEEE6sentrycvbB6v15006Ev: ; @_ZNKSt3__113basic_istreamIcNS_11char_traitsIcEEE6sentrycvbB6v15006Ev
	.cfi_startproc
; %bb.0:
	sub	sp, sp, #16
	.cfi_def_cfa_offset 16
	str	x0, [sp, #8]
	ldr	x8, [sp, #8]
	ldrb	w8, [x8]
	and	w0, w8, #0x1
	add	sp, sp, #16
	ret
	.cfi_endproc
                                        ; -- End function
	.private_extern	__ZNSt3__112basic_stringIcNS_11char_traitsIcEENS_9allocatorIcEEE5clearB6v15006Ev ; -- Begin function _ZNSt3__112basic_stringIcNS_11char_traitsIcEENS_9allocatorIcEEE5clearB6v15006Ev
	.globl	__ZNSt3__112basic_stringIcNS_11char_traitsIcEENS_9allocatorIcEEE5clearB6v15006Ev
	.weak_definition	__ZNSt3__112basic_stringIcNS_11char_traitsIcEENS_9allocatorIcEEE5clearB6v15006Ev
	.p2align	2
__ZNSt3__112basic_stringIcNS_11char_traitsIcEENS_9allocatorIcEEE5clearB6v15006Ev: ; @_ZNSt3__112basic_stringIcNS_11char_traitsIcEENS_9allocatorIcEEE5clearB6v15006Ev
Lfunc_begin12:
	.cfi_startproc
	.cfi_personality 155, ___gxx_personality_v0
	.cfi_lsda 16, Lexception12
; %bb.0:
	sub	sp, sp, #48
	.cfi_def_cfa_offset 48
	stp	x29, x30, [sp, #32]             ; 16-byte Folded Spill
	add	x29, sp, #32
	.cfi_def_cfa w29, 16
	.cfi_offset w30, -8
	.cfi_offset w29, -16
	stur	x0, [x29, #-8]
	ldur	x0, [x29, #-8]
	str	x0, [sp]                        ; 8-byte Folded Spill
Ltmp183:
	bl	__ZNSt3__125__debug_db_invalidate_allB6v15006INS_12basic_stringIcNS_11char_traitsIcEENS_9allocatorIcEEEEEEvPT_
Ltmp184:
	b	LBB86_1
LBB86_1:
	ldr	x0, [sp]                        ; 8-byte Folded Reload
	bl	__ZNKSt3__112basic_stringIcNS_11char_traitsIcEENS_9allocatorIcEEE9__is_longB6v15006Ev
	tbz	w0, #0, LBB86_5
	b	LBB86_2
LBB86_2:
	ldr	x0, [sp]                        ; 8-byte Folded Reload
	bl	__ZNSt3__112basic_stringIcNS_11char_traitsIcEENS_9allocatorIcEEE18__get_long_pointerB6v15006Ev
	add	x1, sp, #11
	strb	wzr, [sp, #11]
	bl	__ZNSt3__111char_traitsIcE6assignERcRKc
	ldr	x0, [sp]                        ; 8-byte Folded Reload
	mov	x1, #0
	bl	__ZNSt3__112basic_stringIcNS_11char_traitsIcEENS_9allocatorIcEEE15__set_long_sizeB6v15006Em
	b	LBB86_6
LBB86_3:
Ltmp185:
	mov	x8, x1
	str	x0, [sp, #16]
	str	w8, [sp, #12]
	b	LBB86_4
LBB86_4:
	ldr	x0, [sp, #16]
	bl	___cxa_call_unexpected
LBB86_5:
	ldr	x0, [sp]                        ; 8-byte Folded Reload
	bl	__ZNSt3__112basic_stringIcNS_11char_traitsIcEENS_9allocatorIcEEE19__get_short_pointerB6v15006Ev
	add	x1, sp, #10
	strb	wzr, [sp, #10]
	bl	__ZNSt3__111char_traitsIcE6assignERcRKc
	ldr	x0, [sp]                        ; 8-byte Folded Reload
	mov	x1, #0
	bl	__ZNSt3__112basic_stringIcNS_11char_traitsIcEENS_9allocatorIcEEE16__set_short_sizeB6v15006Em
	b	LBB86_6
LBB86_6:
	ldp	x29, x30, [sp, #32]             ; 16-byte Folded Reload
	add	sp, sp, #48
	ret
Lfunc_end12:
	.cfi_endproc
	.section	__TEXT,__gcc_except_tab
	.p2align	2
GCC_except_table86:
Lexception12:
	.byte	255                             ; @LPStart Encoding = omit
	.byte	155                             ; @TType Encoding = indirect pcrel sdata4
	.uleb128 Lttbase11-Lttbaseref11
Lttbaseref11:
	.byte	1                               ; Call site Encoding = uleb128
	.uleb128 Lcst_end12-Lcst_begin12
Lcst_begin12:
	.uleb128 Ltmp183-Lfunc_begin12          ; >> Call Site 1 <<
	.uleb128 Ltmp184-Ltmp183                ;   Call between Ltmp183 and Ltmp184
	.uleb128 Ltmp185-Lfunc_begin12          ;     jumps to Ltmp185
	.byte	1                               ;   On action: 1
	.uleb128 Ltmp184-Lfunc_begin12          ; >> Call Site 2 <<
	.uleb128 Lfunc_end12-Ltmp184            ;   Call between Ltmp184 and Lfunc_end12
	.byte	0                               ;     has no landing pad
	.byte	0                               ;   On action: cleanup
Lcst_end12:
	.byte	127                             ; >> Action Record 1 <<
                                        ;   Filter TypeInfo -1
	.byte	0                               ;   No further actions
	.p2align	2
Lttbase11:
                                        ; >> Filter TypeInfos <<
	.byte	0
	.p2align	2
                                        ; -- End function
	.section	__TEXT,__text,regular,pure_instructions
	.private_extern	__ZNKSt3__112basic_stringIcNS_11char_traitsIcEENS_9allocatorIcEEE8max_sizeB6v15006Ev ; -- Begin function _ZNKSt3__112basic_stringIcNS_11char_traitsIcEENS_9allocatorIcEEE8max_sizeB6v15006Ev
	.globl	__ZNKSt3__112basic_stringIcNS_11char_traitsIcEENS_9allocatorIcEEE8max_sizeB6v15006Ev
	.weak_definition	__ZNKSt3__112basic_stringIcNS_11char_traitsIcEENS_9allocatorIcEEE8max_sizeB6v15006Ev
	.p2align	2
__ZNKSt3__112basic_stringIcNS_11char_traitsIcEENS_9allocatorIcEEE8max_sizeB6v15006Ev: ; @_ZNKSt3__112basic_stringIcNS_11char_traitsIcEENS_9allocatorIcEEE8max_sizeB6v15006Ev
	.cfi_startproc
; %bb.0:
	sub	sp, sp, #64
	.cfi_def_cfa_offset 64
	stp	x29, x30, [sp, #48]             ; 16-byte Folded Spill
	add	x29, sp, #48
	.cfi_def_cfa w29, 16
	.cfi_offset w30, -8
	.cfi_offset w29, -16
	stur	x0, [x29, #-16]
	ldur	x0, [x29, #-16]
	bl	__ZNKSt3__112basic_stringIcNS_11char_traitsIcEENS_9allocatorIcEEE7__allocB6v15006Ev
	bl	__ZNSt3__116allocator_traitsINS_9allocatorIcEEE8max_sizeB6v15006IS2_vEEmRKS2_
	str	x0, [sp, #24]
	ldr	x8, [sp, #24]
	str	x8, [sp, #8]                    ; 8-byte Folded Spill
	bl	__ZNSt3__114numeric_limitsImE3maxB6v15006Ev
	ldr	x8, [sp, #8]                    ; 8-byte Folded Reload
	mov	x9, #2
	udiv	x9, x0, x9
	subs	x8, x8, x9
	cset	w8, hi
	tbnz	w8, #0, LBB87_2
	b	LBB87_1
LBB87_1:
	ldr	x8, [sp, #24]
	subs	x8, x8, #16
	stur	x8, [x29, #-8]
	b	LBB87_6
LBB87_2:
	strb	wzr, [sp, #23]
	ldrb	w8, [sp, #23]
	tbz	w8, #0, LBB87_4
	b	LBB87_3
LBB87_3:
	ldr	x8, [sp, #24]
	subs	x8, x8, #16
	str	x8, [sp]                        ; 8-byte Folded Spill
	b	LBB87_5
LBB87_4:
	ldr	x8, [sp, #24]
	mov	x9, #2
	udiv	x8, x8, x9
	subs	x8, x8, #16
	str	x8, [sp]                        ; 8-byte Folded Spill
	b	LBB87_5
LBB87_5:
	ldr	x8, [sp]                        ; 8-byte Folded Reload
	stur	x8, [x29, #-8]
	b	LBB87_6
LBB87_6:
	ldur	x0, [x29, #-8]
	ldp	x29, x30, [sp, #48]             ; 16-byte Folded Reload
	add	sp, sp, #64
	ret
	.cfi_endproc
                                        ; -- End function
	.private_extern	__ZNSt3__114numeric_limitsIlE3maxB6v15006Ev ; -- Begin function _ZNSt3__114numeric_limitsIlE3maxB6v15006Ev
	.globl	__ZNSt3__114numeric_limitsIlE3maxB6v15006Ev
	.weak_definition	__ZNSt3__114numeric_limitsIlE3maxB6v15006Ev
	.p2align	2
__ZNSt3__114numeric_limitsIlE3maxB6v15006Ev: ; @_ZNSt3__114numeric_limitsIlE3maxB6v15006Ev
	.cfi_startproc
; %bb.0:
	stp	x29, x30, [sp, #-16]!           ; 16-byte Folded Spill
	.cfi_def_cfa_offset 16
	mov	x29, sp
	.cfi_def_cfa w29, 16
	.cfi_offset w30, -8
	.cfi_offset w29, -16
	bl	__ZNSt3__123__libcpp_numeric_limitsIlLb1EE3maxB6v15006Ev
	ldp	x29, x30, [sp], #16             ; 16-byte Folded Reload
	ret
	.cfi_endproc
                                        ; -- End function
	.private_extern	__ZNSt3__115basic_streambufIcNS_11char_traitsIcEEE5sgetcB6v15006Ev ; -- Begin function _ZNSt3__115basic_streambufIcNS_11char_traitsIcEEE5sgetcB6v15006Ev
	.globl	__ZNSt3__115basic_streambufIcNS_11char_traitsIcEEE5sgetcB6v15006Ev
	.weak_definition	__ZNSt3__115basic_streambufIcNS_11char_traitsIcEEE5sgetcB6v15006Ev
	.p2align	2
__ZNSt3__115basic_streambufIcNS_11char_traitsIcEEE5sgetcB6v15006Ev: ; @_ZNSt3__115basic_streambufIcNS_11char_traitsIcEEE5sgetcB6v15006Ev
	.cfi_startproc
; %bb.0:
	sub	sp, sp, #48
	.cfi_def_cfa_offset 48
	stp	x29, x30, [sp, #32]             ; 16-byte Folded Spill
	add	x29, sp, #32
	.cfi_def_cfa w29, 16
	.cfi_offset w30, -8
	.cfi_offset w29, -16
	str	x0, [sp, #16]
	ldr	x9, [sp, #16]
	str	x9, [sp, #8]                    ; 8-byte Folded Spill
	ldr	x8, [x9, #24]
	ldr	x9, [x9, #32]
	subs	x8, x8, x9
	cset	w8, ne
	tbnz	w8, #0, LBB89_2
	b	LBB89_1
LBB89_1:
	ldr	x0, [sp, #8]                    ; 8-byte Folded Reload
	ldr	x8, [x0]
	ldr	x8, [x8, #72]
	blr	x8
	stur	w0, [x29, #-4]
	b	LBB89_3
LBB89_2:
	ldr	x8, [sp, #8]                    ; 8-byte Folded Reload
	ldr	x8, [x8, #24]
	ldrsb	w0, [x8]
	bl	__ZNSt3__111char_traitsIcE11to_int_typeEc
	stur	w0, [x29, #-4]
	b	LBB89_3
LBB89_3:
	ldur	w0, [x29, #-4]
	ldp	x29, x30, [sp, #32]             ; 16-byte Folded Reload
	add	sp, sp, #48
	ret
	.cfi_endproc
                                        ; -- End function
	.globl	__ZNSt3__111char_traitsIcE12to_char_typeEi ; -- Begin function _ZNSt3__111char_traitsIcE12to_char_typeEi
	.weak_definition	__ZNSt3__111char_traitsIcE12to_char_typeEi
	.p2align	2
__ZNSt3__111char_traitsIcE12to_char_typeEi: ; @_ZNSt3__111char_traitsIcE12to_char_typeEi
	.cfi_startproc
; %bb.0:
	sub	sp, sp, #16
	.cfi_def_cfa_offset 16
	str	w0, [sp, #12]
	ldr	w8, [sp, #12]
	sxtb	w0, w8
	add	sp, sp, #16
	ret
	.cfi_endproc
                                        ; -- End function
	.private_extern	__ZNKSt3__15ctypeIcE2isB6v15006Ejc ; -- Begin function _ZNKSt3__15ctypeIcE2isB6v15006Ejc
	.globl	__ZNKSt3__15ctypeIcE2isB6v15006Ejc
	.weak_definition	__ZNKSt3__15ctypeIcE2isB6v15006Ejc
	.p2align	2
__ZNKSt3__15ctypeIcE2isB6v15006Ejc:     ; @_ZNKSt3__15ctypeIcE2isB6v15006Ejc
	.cfi_startproc
; %bb.0:
	sub	sp, sp, #48
	.cfi_def_cfa_offset 48
	stp	x29, x30, [sp, #32]             ; 16-byte Folded Spill
	add	x29, sp, #32
	.cfi_def_cfa w29, 16
	.cfi_offset w30, -8
	.cfi_offset w29, -16
	stur	x0, [x29, #-8]
	stur	w1, [x29, #-12]
	sturb	w2, [x29, #-13]
	ldur	x8, [x29, #-8]
	str	x8, [sp, #8]                    ; 8-byte Folded Spill
	ldursb	w0, [x29, #-13]
	bl	__Z7isasciii
	subs	w8, w0, #0
	cset	w8, eq
	tbnz	w8, #0, LBB91_2
	b	LBB91_1
LBB91_1:
	ldr	x8, [sp, #8]                    ; 8-byte Folded Reload
	ldr	x8, [x8, #16]
	ldursb	x9, [x29, #-13]
	ldr	w8, [x8, x9, lsl #2]
	ldur	w9, [x29, #-12]
	ands	w8, w8, w9
	cset	w8, ne
	str	w8, [sp, #4]                    ; 4-byte Folded Spill
	b	LBB91_3
LBB91_2:
	mov	w8, #0
	str	w8, [sp, #4]                    ; 4-byte Folded Spill
	b	LBB91_3
LBB91_3:
	ldr	w8, [sp, #4]                    ; 4-byte Folded Reload
	and	w0, w8, #0x1
	ldp	x29, x30, [sp, #32]             ; 16-byte Folded Reload
	add	sp, sp, #48
	ret
	.cfi_endproc
                                        ; -- End function
	.private_extern	__ZNSt3__115basic_streambufIcNS_11char_traitsIcEEE6sbumpcB6v15006Ev ; -- Begin function _ZNSt3__115basic_streambufIcNS_11char_traitsIcEEE6sbumpcB6v15006Ev
	.globl	__ZNSt3__115basic_streambufIcNS_11char_traitsIcEEE6sbumpcB6v15006Ev
	.weak_definition	__ZNSt3__115basic_streambufIcNS_11char_traitsIcEEE6sbumpcB6v15006Ev
	.p2align	2
__ZNSt3__115basic_streambufIcNS_11char_traitsIcEEE6sbumpcB6v15006Ev: ; @_ZNSt3__115basic_streambufIcNS_11char_traitsIcEEE6sbumpcB6v15006Ev
	.cfi_startproc
; %bb.0:
	sub	sp, sp, #48
	.cfi_def_cfa_offset 48
	stp	x29, x30, [sp, #32]             ; 16-byte Folded Spill
	add	x29, sp, #32
	.cfi_def_cfa w29, 16
	.cfi_offset w30, -8
	.cfi_offset w29, -16
	str	x0, [sp, #16]
	ldr	x9, [sp, #16]
	str	x9, [sp, #8]                    ; 8-byte Folded Spill
	ldr	x8, [x9, #24]
	ldr	x9, [x9, #32]
	subs	x8, x8, x9
	cset	w8, ne
	tbnz	w8, #0, LBB92_2
	b	LBB92_1
LBB92_1:
	ldr	x0, [sp, #8]                    ; 8-byte Folded Reload
	ldr	x8, [x0]
	ldr	x8, [x8, #80]
	blr	x8
	stur	w0, [x29, #-4]
	b	LBB92_3
LBB92_2:
	ldr	x10, [sp, #8]                   ; 8-byte Folded Reload
	ldr	x8, [x10, #24]
	add	x9, x8, #1
	str	x9, [x10, #24]
	ldrsb	w0, [x8]
	bl	__ZNSt3__111char_traitsIcE11to_int_typeEc
	stur	w0, [x29, #-4]
	b	LBB92_3
LBB92_3:
	ldur	w0, [x29, #-4]
	ldp	x29, x30, [sp, #32]             ; 16-byte Folded Reload
	add	sp, sp, #48
	ret
	.cfi_endproc
                                        ; -- End function
	.private_extern	__ZNSt3__18ios_base18__setstate_nothrowB6v15006Ej ; -- Begin function _ZNSt3__18ios_base18__setstate_nothrowB6v15006Ej
	.globl	__ZNSt3__18ios_base18__setstate_nothrowB6v15006Ej
	.weak_definition	__ZNSt3__18ios_base18__setstate_nothrowB6v15006Ej
	.p2align	2
__ZNSt3__18ios_base18__setstate_nothrowB6v15006Ej: ; @_ZNSt3__18ios_base18__setstate_nothrowB6v15006Ej
	.cfi_startproc
; %bb.0:
	sub	sp, sp, #32
	.cfi_def_cfa_offset 32
	str	x0, [sp, #24]
	str	w1, [sp, #20]
	ldr	x8, [sp, #24]
	str	x8, [sp, #8]                    ; 8-byte Folded Spill
	ldr	x8, [x8, #40]
	subs	x8, x8, #0
	cset	w8, eq
	tbnz	w8, #0, LBB93_2
	b	LBB93_1
LBB93_1:
	ldr	x9, [sp, #8]                    ; 8-byte Folded Reload
	ldr	w10, [sp, #20]
	ldr	w8, [x9, #32]
	orr	w8, w8, w10
	str	w8, [x9, #32]
	b	LBB93_3
LBB93_2:
	ldr	x9, [sp, #8]                    ; 8-byte Folded Reload
	ldr	w8, [sp, #20]
	orr	w10, w8, #0x1
	ldr	w8, [x9, #32]
	orr	w8, w8, w10
	str	w8, [x9, #32]
	b	LBB93_3
LBB93_3:
	add	sp, sp, #32
	ret
	.cfi_endproc
                                        ; -- End function
	.private_extern	__ZNKSt3__19basic_iosIcNS_11char_traitsIcEEE10exceptionsB6v15006Ev ; -- Begin function _ZNKSt3__19basic_iosIcNS_11char_traitsIcEEE10exceptionsB6v15006Ev
	.globl	__ZNKSt3__19basic_iosIcNS_11char_traitsIcEEE10exceptionsB6v15006Ev
	.weak_definition	__ZNKSt3__19basic_iosIcNS_11char_traitsIcEEE10exceptionsB6v15006Ev
	.p2align	2
__ZNKSt3__19basic_iosIcNS_11char_traitsIcEEE10exceptionsB6v15006Ev: ; @_ZNKSt3__19basic_iosIcNS_11char_traitsIcEEE10exceptionsB6v15006Ev
	.cfi_startproc
; %bb.0:
	sub	sp, sp, #32
	.cfi_def_cfa_offset 32
	stp	x29, x30, [sp, #16]             ; 16-byte Folded Spill
	add	x29, sp, #16
	.cfi_def_cfa w29, 16
	.cfi_offset w30, -8
	.cfi_offset w29, -16
	str	x0, [sp, #8]
	ldr	x0, [sp, #8]
	bl	__ZNKSt3__18ios_base10exceptionsB6v15006Ev
	ldp	x29, x30, [sp, #16]             ; 16-byte Folded Reload
	add	sp, sp, #32
	ret
	.cfi_endproc
                                        ; -- End function
	.private_extern	__ZNSt3__125__debug_db_invalidate_allB6v15006INS_12basic_stringIcNS_11char_traitsIcEENS_9allocatorIcEEEEEEvPT_ ; -- Begin function _ZNSt3__125__debug_db_invalidate_allB6v15006INS_12basic_stringIcNS_11char_traitsIcEENS_9allocatorIcEEEEEEvPT_
	.globl	__ZNSt3__125__debug_db_invalidate_allB6v15006INS_12basic_stringIcNS_11char_traitsIcEENS_9allocatorIcEEEEEEvPT_
	.weak_definition	__ZNSt3__125__debug_db_invalidate_allB6v15006INS_12basic_stringIcNS_11char_traitsIcEENS_9allocatorIcEEEEEEvPT_
	.p2align	2
__ZNSt3__125__debug_db_invalidate_allB6v15006INS_12basic_stringIcNS_11char_traitsIcEENS_9allocatorIcEEEEEEvPT_: ; @_ZNSt3__125__debug_db_invalidate_allB6v15006INS_12basic_stringIcNS_11char_traitsIcEENS_9allocatorIcEEEEEEvPT_
	.cfi_startproc
; %bb.0:
	sub	sp, sp, #16
	.cfi_def_cfa_offset 16
	str	x0, [sp, #8]
	add	sp, sp, #16
	ret
	.cfi_endproc
                                        ; -- End function
	.globl	__ZNSt3__111char_traitsIcE6assignERcRKc ; -- Begin function _ZNSt3__111char_traitsIcE6assignERcRKc
	.weak_definition	__ZNSt3__111char_traitsIcE6assignERcRKc
	.p2align	2
__ZNSt3__111char_traitsIcE6assignERcRKc: ; @_ZNSt3__111char_traitsIcE6assignERcRKc
	.cfi_startproc
; %bb.0:
	sub	sp, sp, #16
	.cfi_def_cfa_offset 16
	str	x0, [sp, #8]
	str	x1, [sp]
	ldr	x8, [sp]
	ldrb	w8, [x8]
	ldr	x9, [sp, #8]
	strb	w8, [x9]
	add	sp, sp, #16
	ret
	.cfi_endproc
                                        ; -- End function
	.private_extern	__ZNSt3__112basic_stringIcNS_11char_traitsIcEENS_9allocatorIcEEE18__get_long_pointerB6v15006Ev ; -- Begin function _ZNSt3__112basic_stringIcNS_11char_traitsIcEENS_9allocatorIcEEE18__get_long_pointerB6v15006Ev
	.globl	__ZNSt3__112basic_stringIcNS_11char_traitsIcEENS_9allocatorIcEEE18__get_long_pointerB6v15006Ev
	.weak_definition	__ZNSt3__112basic_stringIcNS_11char_traitsIcEENS_9allocatorIcEEE18__get_long_pointerB6v15006Ev
	.p2align	2
__ZNSt3__112basic_stringIcNS_11char_traitsIcEENS_9allocatorIcEEE18__get_long_pointerB6v15006Ev: ; @_ZNSt3__112basic_stringIcNS_11char_traitsIcEENS_9allocatorIcEEE18__get_long_pointerB6v15006Ev
	.cfi_startproc
; %bb.0:
	sub	sp, sp, #32
	.cfi_def_cfa_offset 32
	stp	x29, x30, [sp, #16]             ; 16-byte Folded Spill
	add	x29, sp, #16
	.cfi_def_cfa w29, 16
	.cfi_offset w30, -8
	.cfi_offset w29, -16
	str	x0, [sp, #8]
	ldr	x0, [sp, #8]
	bl	__ZNSt3__117__compressed_pairINS_12basic_stringIcNS_11char_traitsIcEENS_9allocatorIcEEE5__repES5_E5firstB6v15006Ev
	ldr	x0, [x0]
	ldp	x29, x30, [sp, #16]             ; 16-byte Folded Reload
	add	sp, sp, #32
	ret
	.cfi_endproc
                                        ; -- End function
	.private_extern	__ZNSt3__112basic_stringIcNS_11char_traitsIcEENS_9allocatorIcEEE19__get_short_pointerB6v15006Ev ; -- Begin function _ZNSt3__112basic_stringIcNS_11char_traitsIcEENS_9allocatorIcEEE19__get_short_pointerB6v15006Ev
	.globl	__ZNSt3__112basic_stringIcNS_11char_traitsIcEENS_9allocatorIcEEE19__get_short_pointerB6v15006Ev
	.weak_definition	__ZNSt3__112basic_stringIcNS_11char_traitsIcEENS_9allocatorIcEEE19__get_short_pointerB6v15006Ev
	.p2align	2
__ZNSt3__112basic_stringIcNS_11char_traitsIcEENS_9allocatorIcEEE19__get_short_pointerB6v15006Ev: ; @_ZNSt3__112basic_stringIcNS_11char_traitsIcEENS_9allocatorIcEEE19__get_short_pointerB6v15006Ev
	.cfi_startproc
; %bb.0:
	sub	sp, sp, #32
	.cfi_def_cfa_offset 32
	stp	x29, x30, [sp, #16]             ; 16-byte Folded Spill
	add	x29, sp, #16
	.cfi_def_cfa w29, 16
	.cfi_offset w30, -8
	.cfi_offset w29, -16
	str	x0, [sp, #8]
	ldr	x0, [sp, #8]
	bl	__ZNSt3__117__compressed_pairINS_12basic_stringIcNS_11char_traitsIcEENS_9allocatorIcEEE5__repES5_E5firstB6v15006Ev
	bl	__ZNSt3__114pointer_traitsIPcE10pointer_toB6v15006ERc
	ldp	x29, x30, [sp, #16]             ; 16-byte Folded Reload
	add	sp, sp, #32
	ret
	.cfi_endproc
                                        ; -- End function
	.private_extern	__ZNSt3__112basic_stringIcNS_11char_traitsIcEENS_9allocatorIcEEE16__set_short_sizeB6v15006Em ; -- Begin function _ZNSt3__112basic_stringIcNS_11char_traitsIcEENS_9allocatorIcEEE16__set_short_sizeB6v15006Em
	.globl	__ZNSt3__112basic_stringIcNS_11char_traitsIcEENS_9allocatorIcEEE16__set_short_sizeB6v15006Em
	.weak_definition	__ZNSt3__112basic_stringIcNS_11char_traitsIcEENS_9allocatorIcEEE16__set_short_sizeB6v15006Em
	.p2align	2
__ZNSt3__112basic_stringIcNS_11char_traitsIcEENS_9allocatorIcEEE16__set_short_sizeB6v15006Em: ; @_ZNSt3__112basic_stringIcNS_11char_traitsIcEENS_9allocatorIcEEE16__set_short_sizeB6v15006Em
	.cfi_startproc
; %bb.0:
	sub	sp, sp, #64
	.cfi_def_cfa_offset 64
	stp	x29, x30, [sp, #48]             ; 16-byte Folded Spill
	add	x29, sp, #48
	.cfi_def_cfa w29, 16
	.cfi_offset w30, -8
	.cfi_offset w29, -16
	stur	x0, [x29, #-8]
	stur	x1, [x29, #-16]
	ldur	x0, [x29, #-8]
	str	x0, [sp, #16]                   ; 8-byte Folded Spill
	ldur	x8, [x29, #-16]
	str	x8, [sp, #8]                    ; 8-byte Folded Spill
	bl	__ZNSt3__117__compressed_pairINS_12basic_stringIcNS_11char_traitsIcEENS_9allocatorIcEEE5__repES5_E5firstB6v15006Ev
	ldr	x10, [sp, #8]                   ; 8-byte Folded Reload
	mov	x9, x0
	ldr	x0, [sp, #16]                   ; 8-byte Folded Reload
	ldrb	w8, [x9, #23]
                                        ; kill: def $w10 killed $w10 killed $x10
	mov	w11, #127
	stur	w11, [x29, #-20]                ; 4-byte Folded Spill
	and	w10, w10, #0x7f
	and	w8, w8, #0xffffff80
	orr	w8, w8, w10
	strb	w8, [x9, #23]
	bl	__ZNSt3__117__compressed_pairINS_12basic_stringIcNS_11char_traitsIcEENS_9allocatorIcEEE5__repES5_E5firstB6v15006Ev
	ldur	w9, [x29, #-20]                 ; 4-byte Folded Reload
	ldrb	w8, [x0, #23]
	and	w8, w8, w9
	mov	w9, #0
	orr	w8, w8, w9
	strb	w8, [x0, #23]
	ldp	x29, x30, [sp, #48]             ; 16-byte Folded Reload
	add	sp, sp, #64
	ret
	.cfi_endproc
                                        ; -- End function
	.private_extern	__ZNSt3__114pointer_traitsIPcE10pointer_toB6v15006ERc ; -- Begin function _ZNSt3__114pointer_traitsIPcE10pointer_toB6v15006ERc
	.globl	__ZNSt3__114pointer_traitsIPcE10pointer_toB6v15006ERc
	.weak_definition	__ZNSt3__114pointer_traitsIPcE10pointer_toB6v15006ERc
	.p2align	2
__ZNSt3__114pointer_traitsIPcE10pointer_toB6v15006ERc: ; @_ZNSt3__114pointer_traitsIPcE10pointer_toB6v15006ERc
	.cfi_startproc
; %bb.0:
	sub	sp, sp, #16
	.cfi_def_cfa_offset 16
	str	x0, [sp, #8]
	ldr	x0, [sp, #8]
	add	sp, sp, #16
	ret
	.cfi_endproc
                                        ; -- End function
	.private_extern	__ZNKSt3__112basic_stringIcNS_11char_traitsIcEENS_9allocatorIcEEE7__allocB6v15006Ev ; -- Begin function _ZNKSt3__112basic_stringIcNS_11char_traitsIcEENS_9allocatorIcEEE7__allocB6v15006Ev
	.globl	__ZNKSt3__112basic_stringIcNS_11char_traitsIcEENS_9allocatorIcEEE7__allocB6v15006Ev
	.weak_definition	__ZNKSt3__112basic_stringIcNS_11char_traitsIcEENS_9allocatorIcEEE7__allocB6v15006Ev
	.p2align	2
__ZNKSt3__112basic_stringIcNS_11char_traitsIcEENS_9allocatorIcEEE7__allocB6v15006Ev: ; @_ZNKSt3__112basic_stringIcNS_11char_traitsIcEENS_9allocatorIcEEE7__allocB6v15006Ev
	.cfi_startproc
; %bb.0:
	sub	sp, sp, #32
	.cfi_def_cfa_offset 32
	stp	x29, x30, [sp, #16]             ; 16-byte Folded Spill
	add	x29, sp, #16
	.cfi_def_cfa w29, 16
	.cfi_offset w30, -8
	.cfi_offset w29, -16
	str	x0, [sp, #8]
	ldr	x0, [sp, #8]
	bl	__ZNKSt3__117__compressed_pairINS_12basic_stringIcNS_11char_traitsIcEENS_9allocatorIcEEE5__repES5_E6secondB6v15006Ev
	ldp	x29, x30, [sp, #16]             ; 16-byte Folded Reload
	add	sp, sp, #32
	ret
	.cfi_endproc
                                        ; -- End function
	.private_extern	__ZNSt3__114numeric_limitsImE3maxB6v15006Ev ; -- Begin function _ZNSt3__114numeric_limitsImE3maxB6v15006Ev
	.globl	__ZNSt3__114numeric_limitsImE3maxB6v15006Ev
	.weak_definition	__ZNSt3__114numeric_limitsImE3maxB6v15006Ev
	.p2align	2
__ZNSt3__114numeric_limitsImE3maxB6v15006Ev: ; @_ZNSt3__114numeric_limitsImE3maxB6v15006Ev
	.cfi_startproc
; %bb.0:
	stp	x29, x30, [sp, #-16]!           ; 16-byte Folded Spill
	.cfi_def_cfa_offset 16
	mov	x29, sp
	.cfi_def_cfa w29, 16
	.cfi_offset w30, -8
	.cfi_offset w29, -16
	bl	__ZNSt3__123__libcpp_numeric_limitsImLb1EE3maxB6v15006Ev
	ldp	x29, x30, [sp], #16             ; 16-byte Folded Reload
	ret
	.cfi_endproc
                                        ; -- End function
	.private_extern	__ZNKSt3__117__compressed_pairINS_12basic_stringIcNS_11char_traitsIcEENS_9allocatorIcEEE5__repES5_E6secondB6v15006Ev ; -- Begin function _ZNKSt3__117__compressed_pairINS_12basic_stringIcNS_11char_traitsIcEENS_9allocatorIcEEE5__repES5_E6secondB6v15006Ev
	.globl	__ZNKSt3__117__compressed_pairINS_12basic_stringIcNS_11char_traitsIcEENS_9allocatorIcEEE5__repES5_E6secondB6v15006Ev
	.weak_definition	__ZNKSt3__117__compressed_pairINS_12basic_stringIcNS_11char_traitsIcEENS_9allocatorIcEEE5__repES5_E6secondB6v15006Ev
	.p2align	2
__ZNKSt3__117__compressed_pairINS_12basic_stringIcNS_11char_traitsIcEENS_9allocatorIcEEE5__repES5_E6secondB6v15006Ev: ; @_ZNKSt3__117__compressed_pairINS_12basic_stringIcNS_11char_traitsIcEENS_9allocatorIcEEE5__repES5_E6secondB6v15006Ev
	.cfi_startproc
; %bb.0:
	sub	sp, sp, #32
	.cfi_def_cfa_offset 32
	stp	x29, x30, [sp, #16]             ; 16-byte Folded Spill
	add	x29, sp, #16
	.cfi_def_cfa w29, 16
	.cfi_offset w30, -8
	.cfi_offset w29, -16
	str	x0, [sp, #8]
	ldr	x0, [sp, #8]
	bl	__ZNKSt3__122__compressed_pair_elemINS_9allocatorIcEELi1ELb1EE5__getB6v15006Ev
	ldp	x29, x30, [sp, #16]             ; 16-byte Folded Reload
	add	sp, sp, #32
	ret
	.cfi_endproc
                                        ; -- End function
	.private_extern	__ZNKSt3__122__compressed_pair_elemINS_9allocatorIcEELi1ELb1EE5__getB6v15006Ev ; -- Begin function _ZNKSt3__122__compressed_pair_elemINS_9allocatorIcEELi1ELb1EE5__getB6v15006Ev
	.globl	__ZNKSt3__122__compressed_pair_elemINS_9allocatorIcEELi1ELb1EE5__getB6v15006Ev
	.weak_definition	__ZNKSt3__122__compressed_pair_elemINS_9allocatorIcEELi1ELb1EE5__getB6v15006Ev
	.p2align	2
__ZNKSt3__122__compressed_pair_elemINS_9allocatorIcEELi1ELb1EE5__getB6v15006Ev: ; @_ZNKSt3__122__compressed_pair_elemINS_9allocatorIcEELi1ELb1EE5__getB6v15006Ev
	.cfi_startproc
; %bb.0:
	sub	sp, sp, #16
	.cfi_def_cfa_offset 16
	str	x0, [sp, #8]
	ldr	x0, [sp, #8]
	add	sp, sp, #16
	ret
	.cfi_endproc
                                        ; -- End function
	.private_extern	__ZNSt3__123__libcpp_numeric_limitsImLb1EE3maxB6v15006Ev ; -- Begin function _ZNSt3__123__libcpp_numeric_limitsImLb1EE3maxB6v15006Ev
	.globl	__ZNSt3__123__libcpp_numeric_limitsImLb1EE3maxB6v15006Ev
	.weak_definition	__ZNSt3__123__libcpp_numeric_limitsImLb1EE3maxB6v15006Ev
	.p2align	2
__ZNSt3__123__libcpp_numeric_limitsImLb1EE3maxB6v15006Ev: ; @_ZNSt3__123__libcpp_numeric_limitsImLb1EE3maxB6v15006Ev
	.cfi_startproc
; %bb.0:
	mov	x0, #-1
	ret
	.cfi_endproc
                                        ; -- End function
	.private_extern	__ZNSt3__123__libcpp_numeric_limitsIlLb1EE3maxB6v15006Ev ; -- Begin function _ZNSt3__123__libcpp_numeric_limitsIlLb1EE3maxB6v15006Ev
	.globl	__ZNSt3__123__libcpp_numeric_limitsIlLb1EE3maxB6v15006Ev
	.weak_definition	__ZNSt3__123__libcpp_numeric_limitsIlLb1EE3maxB6v15006Ev
	.p2align	2
__ZNSt3__123__libcpp_numeric_limitsIlLb1EE3maxB6v15006Ev: ; @_ZNSt3__123__libcpp_numeric_limitsIlLb1EE3maxB6v15006Ev
	.cfi_startproc
; %bb.0:
	mov	x0, #9223372036854775807
	ret
	.cfi_endproc
                                        ; -- End function
	.globl	__ZNSt3__111char_traitsIcE11to_int_typeEc ; -- Begin function _ZNSt3__111char_traitsIcE11to_int_typeEc
	.weak_definition	__ZNSt3__111char_traitsIcE11to_int_typeEc
	.p2align	2
__ZNSt3__111char_traitsIcE11to_int_typeEc: ; @_ZNSt3__111char_traitsIcE11to_int_typeEc
	.cfi_startproc
; %bb.0:
	sub	sp, sp, #16
	.cfi_def_cfa_offset 16
	strb	w0, [sp, #15]
	ldrb	w0, [sp, #15]
	add	sp, sp, #16
	ret
	.cfi_endproc
                                        ; -- End function
	.globl	__Z7isasciii                    ; -- Begin function _Z7isasciii
	.weak_definition	__Z7isasciii
	.p2align	2
__Z7isasciii:                           ; @_Z7isasciii
	.cfi_startproc
; %bb.0:
	sub	sp, sp, #16
	.cfi_def_cfa_offset 16
	str	w0, [sp, #12]
	ldr	w8, [sp, #12]
	mov	w9, #-128
	ands	w8, w8, w9
	cset	w8, eq
	and	w0, w8, #0x1
	add	sp, sp, #16
	ret
	.cfi_endproc
                                        ; -- End function
	.private_extern	__ZNKSt3__18ios_base10exceptionsB6v15006Ev ; -- Begin function _ZNKSt3__18ios_base10exceptionsB6v15006Ev
	.globl	__ZNKSt3__18ios_base10exceptionsB6v15006Ev
	.weak_definition	__ZNKSt3__18ios_base10exceptionsB6v15006Ev
	.p2align	2
__ZNKSt3__18ios_base10exceptionsB6v15006Ev: ; @_ZNKSt3__18ios_base10exceptionsB6v15006Ev
	.cfi_startproc
; %bb.0:
	sub	sp, sp, #16
	.cfi_def_cfa_offset 16
	str	x0, [sp, #8]
	ldr	x8, [sp, #8]
	ldr	w0, [x8, #36]
	add	sp, sp, #16
	ret
	.cfi_endproc
                                        ; -- End function
	.private_extern	__ZNSt3__113basic_filebufIcNS_11char_traitsIcEEE4openERKNS_12basic_stringIcS2_NS_9allocatorIcEEEEj ; -- Begin function _ZNSt3__113basic_filebufIcNS_11char_traitsIcEEE4openERKNS_12basic_stringIcS2_NS_9allocatorIcEEEEj
	.globl	__ZNSt3__113basic_filebufIcNS_11char_traitsIcEEE4openERKNS_12basic_stringIcS2_NS_9allocatorIcEEEEj
	.weak_definition	__ZNSt3__113basic_filebufIcNS_11char_traitsIcEEE4openERKNS_12basic_stringIcS2_NS_9allocatorIcEEEEj
	.p2align	2
__ZNSt3__113basic_filebufIcNS_11char_traitsIcEEE4openERKNS_12basic_stringIcS2_NS_9allocatorIcEEEEj: ; @_ZNSt3__113basic_filebufIcNS_11char_traitsIcEEE4openERKNS_12basic_stringIcS2_NS_9allocatorIcEEEEj
	.cfi_startproc
; %bb.0:
	sub	sp, sp, #48
	.cfi_def_cfa_offset 48
	stp	x29, x30, [sp, #32]             ; 16-byte Folded Spill
	add	x29, sp, #32
	.cfi_def_cfa w29, 16
	.cfi_offset w30, -8
	.cfi_offset w29, -16
	stur	x0, [x29, #-8]
	str	x1, [sp, #16]
	str	w2, [sp, #12]
	ldur	x8, [x29, #-8]
	str	x8, [sp]                        ; 8-byte Folded Spill
	ldr	x0, [sp, #16]
	bl	__ZNKSt3__112basic_stringIcNS_11char_traitsIcEENS_9allocatorIcEEE5c_strB6v15006Ev
	mov	x1, x0
	ldr	x0, [sp]                        ; 8-byte Folded Reload
	ldr	w2, [sp, #12]
	bl	__ZNSt3__113basic_filebufIcNS_11char_traitsIcEEE4openEPKcj
	ldp	x29, x30, [sp, #32]             ; 16-byte Folded Reload
	add	sp, sp, #48
	ret
	.cfi_endproc
                                        ; -- End function
	.private_extern	__ZNSt3__19basic_iosIcNS_11char_traitsIcEEE5clearB6v15006Ej ; -- Begin function _ZNSt3__19basic_iosIcNS_11char_traitsIcEEE5clearB6v15006Ej
	.globl	__ZNSt3__19basic_iosIcNS_11char_traitsIcEEE5clearB6v15006Ej
	.weak_definition	__ZNSt3__19basic_iosIcNS_11char_traitsIcEEE5clearB6v15006Ej
	.p2align	2
__ZNSt3__19basic_iosIcNS_11char_traitsIcEEE5clearB6v15006Ej: ; @_ZNSt3__19basic_iosIcNS_11char_traitsIcEEE5clearB6v15006Ej
	.cfi_startproc
; %bb.0:
	sub	sp, sp, #32
	.cfi_def_cfa_offset 32
	stp	x29, x30, [sp, #16]             ; 16-byte Folded Spill
	add	x29, sp, #16
	.cfi_def_cfa w29, 16
	.cfi_offset w30, -8
	.cfi_offset w29, -16
	str	x0, [sp, #8]
	str	w1, [sp, #4]
	ldr	x0, [sp, #8]
	ldr	w1, [sp, #4]
	bl	__ZNSt3__18ios_base5clearEj
	ldp	x29, x30, [sp, #16]             ; 16-byte Folded Reload
	add	sp, sp, #32
	ret
	.cfi_endproc
                                        ; -- End function
	.private_extern	__ZNKSt3__112basic_stringIcNS_11char_traitsIcEENS_9allocatorIcEEE5c_strB6v15006Ev ; -- Begin function _ZNKSt3__112basic_stringIcNS_11char_traitsIcEENS_9allocatorIcEEE5c_strB6v15006Ev
	.globl	__ZNKSt3__112basic_stringIcNS_11char_traitsIcEENS_9allocatorIcEEE5c_strB6v15006Ev
	.weak_definition	__ZNKSt3__112basic_stringIcNS_11char_traitsIcEENS_9allocatorIcEEE5c_strB6v15006Ev
	.p2align	2
__ZNKSt3__112basic_stringIcNS_11char_traitsIcEENS_9allocatorIcEEE5c_strB6v15006Ev: ; @_ZNKSt3__112basic_stringIcNS_11char_traitsIcEENS_9allocatorIcEEE5c_strB6v15006Ev
	.cfi_startproc
; %bb.0:
	sub	sp, sp, #32
	.cfi_def_cfa_offset 32
	stp	x29, x30, [sp, #16]             ; 16-byte Folded Spill
	add	x29, sp, #16
	.cfi_def_cfa w29, 16
	.cfi_offset w30, -8
	.cfi_offset w29, -16
	str	x0, [sp, #8]
	ldr	x0, [sp, #8]
	bl	__ZNKSt3__112basic_stringIcNS_11char_traitsIcEENS_9allocatorIcEEE4dataB6v15006Ev
	ldp	x29, x30, [sp, #16]             ; 16-byte Folded Reload
	add	sp, sp, #32
	ret
	.cfi_endproc
                                        ; -- End function
	.private_extern	__ZNKSt3__19basic_iosIcNS_11char_traitsIcEEE4failB6v15006Ev ; -- Begin function _ZNKSt3__19basic_iosIcNS_11char_traitsIcEEE4failB6v15006Ev
	.globl	__ZNKSt3__19basic_iosIcNS_11char_traitsIcEEE4failB6v15006Ev
	.weak_definition	__ZNKSt3__19basic_iosIcNS_11char_traitsIcEEE4failB6v15006Ev
	.p2align	2
__ZNKSt3__19basic_iosIcNS_11char_traitsIcEEE4failB6v15006Ev: ; @_ZNKSt3__19basic_iosIcNS_11char_traitsIcEEE4failB6v15006Ev
	.cfi_startproc
; %bb.0:
	sub	sp, sp, #32
	.cfi_def_cfa_offset 32
	stp	x29, x30, [sp, #16]             ; 16-byte Folded Spill
	add	x29, sp, #16
	.cfi_def_cfa w29, 16
	.cfi_offset w30, -8
	.cfi_offset w29, -16
	str	x0, [sp, #8]
	ldr	x0, [sp, #8]
	bl	__ZNKSt3__18ios_base4failB6v15006Ev
	and	w0, w0, #0x1
	ldp	x29, x30, [sp, #16]             ; 16-byte Folded Reload
	add	sp, sp, #32
	ret
	.cfi_endproc
                                        ; -- End function
	.private_extern	__ZNKSt3__18ios_base4failB6v15006Ev ; -- Begin function _ZNKSt3__18ios_base4failB6v15006Ev
	.globl	__ZNKSt3__18ios_base4failB6v15006Ev
	.weak_definition	__ZNKSt3__18ios_base4failB6v15006Ev
	.p2align	2
__ZNKSt3__18ios_base4failB6v15006Ev:    ; @_ZNKSt3__18ios_base4failB6v15006Ev
	.cfi_startproc
; %bb.0:
	sub	sp, sp, #16
	.cfi_def_cfa_offset 16
	str	x0, [sp, #8]
	ldr	x8, [sp, #8]
	ldr	w8, [x8, #32]
	mov	w9, #5
	ands	w8, w8, w9
	cset	w8, ne
	and	w0, w8, #0x1
	add	sp, sp, #16
	ret
	.cfi_endproc
                                        ; -- End function
	.globl	__ZNSt3__111char_traitsIcE2eqEcc ; -- Begin function _ZNSt3__111char_traitsIcE2eqEcc
	.weak_definition	__ZNSt3__111char_traitsIcE2eqEcc
	.p2align	2
__ZNSt3__111char_traitsIcE2eqEcc:       ; @_ZNSt3__111char_traitsIcE2eqEcc
	.cfi_startproc
; %bb.0:
	sub	sp, sp, #16
	.cfi_def_cfa_offset 16
	strb	w0, [sp, #15]
	strb	w1, [sp, #14]
	ldrsb	w8, [sp, #15]
	ldrsb	w9, [sp, #14]
	subs	w8, w8, w9
	cset	w8, eq
	and	w0, w8, #0x1
	add	sp, sp, #16
	ret
	.cfi_endproc
                                        ; -- End function
	.private_extern	__ZNKSt3__112basic_stringIcNS_11char_traitsIcEENS_9allocatorIcEEE4sizeB6v15006Ev ; -- Begin function _ZNKSt3__112basic_stringIcNS_11char_traitsIcEENS_9allocatorIcEEE4sizeB6v15006Ev
	.globl	__ZNKSt3__112basic_stringIcNS_11char_traitsIcEENS_9allocatorIcEEE4sizeB6v15006Ev
	.weak_definition	__ZNKSt3__112basic_stringIcNS_11char_traitsIcEENS_9allocatorIcEEE4sizeB6v15006Ev
	.p2align	2
__ZNKSt3__112basic_stringIcNS_11char_traitsIcEENS_9allocatorIcEEE4sizeB6v15006Ev: ; @_ZNKSt3__112basic_stringIcNS_11char_traitsIcEENS_9allocatorIcEEE4sizeB6v15006Ev
	.cfi_startproc
; %bb.0:
	sub	sp, sp, #48
	.cfi_def_cfa_offset 48
	stp	x29, x30, [sp, #32]             ; 16-byte Folded Spill
	add	x29, sp, #32
	.cfi_def_cfa w29, 16
	.cfi_offset w30, -8
	.cfi_offset w29, -16
	stur	x0, [x29, #-8]
	ldur	x0, [x29, #-8]
	str	x0, [sp, #16]                   ; 8-byte Folded Spill
	bl	__ZNKSt3__112basic_stringIcNS_11char_traitsIcEENS_9allocatorIcEEE9__is_longB6v15006Ev
	tbz	w0, #0, LBB116_2
	b	LBB116_1
LBB116_1:
	ldr	x0, [sp, #16]                   ; 8-byte Folded Reload
	bl	__ZNKSt3__112basic_stringIcNS_11char_traitsIcEENS_9allocatorIcEEE15__get_long_sizeB6v15006Ev
	str	x0, [sp, #8]                    ; 8-byte Folded Spill
	b	LBB116_3
LBB116_2:
	ldr	x0, [sp, #16]                   ; 8-byte Folded Reload
	bl	__ZNKSt3__112basic_stringIcNS_11char_traitsIcEENS_9allocatorIcEEE16__get_short_sizeB6v15006Ev
	str	x0, [sp, #8]                    ; 8-byte Folded Spill
	b	LBB116_3
LBB116_3:
	ldr	x0, [sp, #8]                    ; 8-byte Folded Reload
	ldp	x29, x30, [sp, #32]             ; 16-byte Folded Reload
	add	sp, sp, #48
	ret
	.cfi_endproc
                                        ; -- End function
	.private_extern	__ZNKSt3__112basic_stringIcNS_11char_traitsIcEENS_9allocatorIcEEE15__get_long_sizeB6v15006Ev ; -- Begin function _ZNKSt3__112basic_stringIcNS_11char_traitsIcEENS_9allocatorIcEEE15__get_long_sizeB6v15006Ev
	.globl	__ZNKSt3__112basic_stringIcNS_11char_traitsIcEENS_9allocatorIcEEE15__get_long_sizeB6v15006Ev
	.weak_definition	__ZNKSt3__112basic_stringIcNS_11char_traitsIcEENS_9allocatorIcEEE15__get_long_sizeB6v15006Ev
	.p2align	2
__ZNKSt3__112basic_stringIcNS_11char_traitsIcEENS_9allocatorIcEEE15__get_long_sizeB6v15006Ev: ; @_ZNKSt3__112basic_stringIcNS_11char_traitsIcEENS_9allocatorIcEEE15__get_long_sizeB6v15006Ev
	.cfi_startproc
; %bb.0:
	sub	sp, sp, #32
	.cfi_def_cfa_offset 32
	stp	x29, x30, [sp, #16]             ; 16-byte Folded Spill
	add	x29, sp, #16
	.cfi_def_cfa w29, 16
	.cfi_offset w30, -8
	.cfi_offset w29, -16
	str	x0, [sp, #8]
	ldr	x0, [sp, #8]
	bl	__ZNKSt3__117__compressed_pairINS_12basic_stringIcNS_11char_traitsIcEENS_9allocatorIcEEE5__repES5_E5firstB6v15006Ev
	ldr	x0, [x0, #8]
	ldp	x29, x30, [sp, #16]             ; 16-byte Folded Reload
	add	sp, sp, #32
	ret
	.cfi_endproc
                                        ; -- End function
	.private_extern	__ZNKSt3__112basic_stringIcNS_11char_traitsIcEENS_9allocatorIcEEE16__get_short_sizeB6v15006Ev ; -- Begin function _ZNKSt3__112basic_stringIcNS_11char_traitsIcEENS_9allocatorIcEEE16__get_short_sizeB6v15006Ev
	.globl	__ZNKSt3__112basic_stringIcNS_11char_traitsIcEENS_9allocatorIcEEE16__get_short_sizeB6v15006Ev
	.weak_definition	__ZNKSt3__112basic_stringIcNS_11char_traitsIcEENS_9allocatorIcEEE16__get_short_sizeB6v15006Ev
	.p2align	2
__ZNKSt3__112basic_stringIcNS_11char_traitsIcEENS_9allocatorIcEEE16__get_short_sizeB6v15006Ev: ; @_ZNKSt3__112basic_stringIcNS_11char_traitsIcEENS_9allocatorIcEEE16__get_short_sizeB6v15006Ev
	.cfi_startproc
; %bb.0:
	sub	sp, sp, #32
	.cfi_def_cfa_offset 32
	stp	x29, x30, [sp, #16]             ; 16-byte Folded Spill
	add	x29, sp, #16
	.cfi_def_cfa w29, 16
	.cfi_offset w30, -8
	.cfi_offset w29, -16
	str	x0, [sp, #8]
	ldr	x0, [sp, #8]
	bl	__ZNKSt3__117__compressed_pairINS_12basic_stringIcNS_11char_traitsIcEENS_9allocatorIcEEE5__repES5_E5firstB6v15006Ev
	ldrb	w8, [x0, #23]
	and	w9, w8, #0x7f
                                        ; implicit-def: $x8
	mov	x8, x9
	and	x0, x8, #0xff
	ldp	x29, x30, [sp, #16]             ; 16-byte Folded Reload
	add	sp, sp, #32
	ret
	.cfi_endproc
                                        ; -- End function
	.section	__TEXT,__cstring,cstring_literals
l_.str:                                 ; @.str
	.asciz	"Menu:\n[1] Create a new file\n[2] Exit\n"

l_.str.1:                               ; @.str.1
	.asciz	"Please choose an option: "

l_.str.2:                               ; @.str.2
	.asciz	"Enter fileName: "

l_.str.3:                               ; @.str.3
	.asciz	"Error in creating file!!!"

l_.str.4:                               ; @.str.4
	.asciz	"Enter fileContent: "

l_.str.5:                               ; @.str.5
	.asciz	"File created successfully.\n"

	.section	__DATA,__const
	.globl	__ZTVNSt3__113basic_fstreamIcNS_11char_traitsIcEEEE ; @_ZTVNSt3__113basic_fstreamIcNS_11char_traitsIcEEEE
	.weak_def_can_be_hidden	__ZTVNSt3__113basic_fstreamIcNS_11char_traitsIcEEEE
	.p2align	3
__ZTVNSt3__113basic_fstreamIcNS_11char_traitsIcEEEE:
	.quad	432
	.quad	0
	.quad	__ZTINSt3__113basic_fstreamIcNS_11char_traitsIcEEEE
	.quad	__ZNSt3__113basic_fstreamIcNS_11char_traitsIcEEED1Ev
	.quad	__ZNSt3__113basic_fstreamIcNS_11char_traitsIcEEED0Ev
	.quad	416
	.quad	-16
	.quad	__ZTINSt3__113basic_fstreamIcNS_11char_traitsIcEEEE
	.quad	__ZThn16_NSt3__113basic_fstreamIcNS_11char_traitsIcEEED1Ev
	.quad	__ZThn16_NSt3__113basic_fstreamIcNS_11char_traitsIcEEED0Ev
	.quad	-432
	.quad	-432
	.quad	__ZTINSt3__113basic_fstreamIcNS_11char_traitsIcEEEE
	.quad	__ZTv0_n24_NSt3__113basic_fstreamIcNS_11char_traitsIcEEED1Ev
	.quad	__ZTv0_n24_NSt3__113basic_fstreamIcNS_11char_traitsIcEEED0Ev

	.globl	__ZTTNSt3__113basic_fstreamIcNS_11char_traitsIcEEEE ; @_ZTTNSt3__113basic_fstreamIcNS_11char_traitsIcEEEE
	.weak_def_can_be_hidden	__ZTTNSt3__113basic_fstreamIcNS_11char_traitsIcEEEE
	.p2align	3
__ZTTNSt3__113basic_fstreamIcNS_11char_traitsIcEEEE:
	.quad	__ZTVNSt3__113basic_fstreamIcNS_11char_traitsIcEEEE+24
	.quad	__ZTCNSt3__113basic_fstreamIcNS_11char_traitsIcEEEE0_NS_14basic_iostreamIcS2_EE+24
	.quad	__ZTCNSt3__113basic_fstreamIcNS_11char_traitsIcEEEE0_NS_13basic_istreamIcS2_EE+24
	.quad	__ZTCNSt3__113basic_fstreamIcNS_11char_traitsIcEEEE0_NS_13basic_istreamIcS2_EE+64
	.quad	__ZTCNSt3__113basic_fstreamIcNS_11char_traitsIcEEEE16_NS_13basic_ostreamIcS2_EE+24
	.quad	__ZTCNSt3__113basic_fstreamIcNS_11char_traitsIcEEEE16_NS_13basic_ostreamIcS2_EE+64
	.quad	__ZTCNSt3__113basic_fstreamIcNS_11char_traitsIcEEEE0_NS_14basic_iostreamIcS2_EE+104
	.quad	__ZTCNSt3__113basic_fstreamIcNS_11char_traitsIcEEEE0_NS_14basic_iostreamIcS2_EE+64
	.quad	__ZTVNSt3__113basic_fstreamIcNS_11char_traitsIcEEEE+104
	.quad	__ZTVNSt3__113basic_fstreamIcNS_11char_traitsIcEEEE+64

	.globl	__ZTCNSt3__113basic_fstreamIcNS_11char_traitsIcEEEE0_NS_14basic_iostreamIcS2_EE ; @_ZTCNSt3__113basic_fstreamIcNS_11char_traitsIcEEEE0_NS_14basic_iostreamIcS2_EE
	.weak_def_can_be_hidden	__ZTCNSt3__113basic_fstreamIcNS_11char_traitsIcEEEE0_NS_14basic_iostreamIcS2_EE
	.p2align	3
__ZTCNSt3__113basic_fstreamIcNS_11char_traitsIcEEEE0_NS_14basic_iostreamIcS2_EE:
	.quad	432
	.quad	0
	.quad	__ZTINSt3__114basic_iostreamIcNS_11char_traitsIcEEEE
	.quad	__ZNSt3__114basic_iostreamIcNS_11char_traitsIcEEED1Ev
	.quad	__ZNSt3__114basic_iostreamIcNS_11char_traitsIcEEED0Ev
	.quad	416
	.quad	-16
	.quad	__ZTINSt3__114basic_iostreamIcNS_11char_traitsIcEEEE
	.quad	__ZThn16_NSt3__114basic_iostreamIcNS_11char_traitsIcEEED1Ev
	.quad	__ZThn16_NSt3__114basic_iostreamIcNS_11char_traitsIcEEED0Ev
	.quad	-432
	.quad	-432
	.quad	__ZTINSt3__114basic_iostreamIcNS_11char_traitsIcEEEE
	.quad	__ZTv0_n24_NSt3__114basic_iostreamIcNS_11char_traitsIcEEED1Ev
	.quad	__ZTv0_n24_NSt3__114basic_iostreamIcNS_11char_traitsIcEEED0Ev

	.globl	__ZTCNSt3__113basic_fstreamIcNS_11char_traitsIcEEEE0_NS_13basic_istreamIcS2_EE ; @_ZTCNSt3__113basic_fstreamIcNS_11char_traitsIcEEEE0_NS_13basic_istreamIcS2_EE
	.weak_def_can_be_hidden	__ZTCNSt3__113basic_fstreamIcNS_11char_traitsIcEEEE0_NS_13basic_istreamIcS2_EE
	.p2align	3
__ZTCNSt3__113basic_fstreamIcNS_11char_traitsIcEEEE0_NS_13basic_istreamIcS2_EE:
	.quad	432
	.quad	0
	.quad	__ZTINSt3__113basic_istreamIcNS_11char_traitsIcEEEE
	.quad	__ZNSt3__113basic_istreamIcNS_11char_traitsIcEEED1Ev
	.quad	__ZNSt3__113basic_istreamIcNS_11char_traitsIcEEED0Ev
	.quad	-432
	.quad	-432
	.quad	__ZTINSt3__113basic_istreamIcNS_11char_traitsIcEEEE
	.quad	__ZTv0_n24_NSt3__113basic_istreamIcNS_11char_traitsIcEEED1Ev
	.quad	__ZTv0_n24_NSt3__113basic_istreamIcNS_11char_traitsIcEEED0Ev

	.globl	__ZTCNSt3__113basic_fstreamIcNS_11char_traitsIcEEEE16_NS_13basic_ostreamIcS2_EE ; @_ZTCNSt3__113basic_fstreamIcNS_11char_traitsIcEEEE16_NS_13basic_ostreamIcS2_EE
	.weak_def_can_be_hidden	__ZTCNSt3__113basic_fstreamIcNS_11char_traitsIcEEEE16_NS_13basic_ostreamIcS2_EE
	.p2align	3
__ZTCNSt3__113basic_fstreamIcNS_11char_traitsIcEEEE16_NS_13basic_ostreamIcS2_EE:
	.quad	416
	.quad	0
	.quad	__ZTINSt3__113basic_ostreamIcNS_11char_traitsIcEEEE
	.quad	__ZNSt3__113basic_ostreamIcNS_11char_traitsIcEEED1Ev
	.quad	__ZNSt3__113basic_ostreamIcNS_11char_traitsIcEEED0Ev
	.quad	-416
	.quad	-416
	.quad	__ZTINSt3__113basic_ostreamIcNS_11char_traitsIcEEEE
	.quad	__ZTv0_n24_NSt3__113basic_ostreamIcNS_11char_traitsIcEEED1Ev
	.quad	__ZTv0_n24_NSt3__113basic_ostreamIcNS_11char_traitsIcEEED0Ev

	.private_extern	__ZTSNSt3__113basic_fstreamIcNS_11char_traitsIcEEEE ; @_ZTSNSt3__113basic_fstreamIcNS_11char_traitsIcEEEE
	.section	__TEXT,__const
	.globl	__ZTSNSt3__113basic_fstreamIcNS_11char_traitsIcEEEE
	.weak_definition	__ZTSNSt3__113basic_fstreamIcNS_11char_traitsIcEEEE
__ZTSNSt3__113basic_fstreamIcNS_11char_traitsIcEEEE:
	.asciz	"NSt3__113basic_fstreamIcNS_11char_traitsIcEEEE"

	.private_extern	__ZTINSt3__113basic_fstreamIcNS_11char_traitsIcEEEE ; @_ZTINSt3__113basic_fstreamIcNS_11char_traitsIcEEEE
	.section	__DATA,__const
	.globl	__ZTINSt3__113basic_fstreamIcNS_11char_traitsIcEEEE
	.weak_definition	__ZTINSt3__113basic_fstreamIcNS_11char_traitsIcEEEE
	.p2align	3
__ZTINSt3__113basic_fstreamIcNS_11char_traitsIcEEEE:
	.quad	__ZTVN10__cxxabiv120__si_class_type_infoE+16
	.quad	__ZTSNSt3__113basic_fstreamIcNS_11char_traitsIcEEEE-9223372036854775808
	.quad	__ZTINSt3__114basic_iostreamIcNS_11char_traitsIcEEEE

.subsections_via_symbols
